	.file	"stack.c"
	.text
	.data
	.align 32
	.type	.Lubsan_type0, @object
	.size	.Lubsan_type0, 19
.Lubsan_type0:
	.value	-1
	.value	0
	.string	"'struct stack'"
	.zero	45
	.section	.rodata
	.align 32
.LC0:
	.string	"stack.c"
	.zero	56
	.data
	.align 32
	.type	.Lubsan_data2, @object
	.size	.Lubsan_data2, 32
.Lubsan_data2:
	.quad	.LC0
	.long	9
	.long	17
	.quad	.Lubsan_type0
	.byte	3
	.byte	3
	.zero	6
	.zero	32
	.align 32
	.type	.Lubsan_data3, @object
	.size	.Lubsan_data3, 16
.Lubsan_data3:
	.quad	.LC0
	.long	9
	.long	17
	.zero	48
	.align 32
	.type	.Lubsan_data4, @object
	.size	.Lubsan_data4, 32
.Lubsan_data4:
	.quad	.LC0
	.long	10
	.long	16
	.quad	.Lubsan_type0
	.byte	3
	.byte	3
	.zero	6
	.zero	32
	.align 32
	.type	.Lubsan_data5, @object
	.size	.Lubsan_data5, 16
.Lubsan_data5:
	.quad	.LC0
	.long	10
	.long	16
	.zero	48
	.align 32
	.type	.Lubsan_data6, @object
	.size	.Lubsan_data6, 32
.Lubsan_data6:
	.quad	.LC0
	.long	11
	.long	12
	.quad	.Lubsan_type0
	.byte	3
	.byte	3
	.zero	6
	.zero	32
	.align 32
	.type	.Lubsan_data7, @object
	.size	.Lubsan_data7, 16
.Lubsan_data7:
	.quad	.LC0
	.long	11
	.long	12
	.zero	48
	.align 32
	.type	.Lubsan_data8, @object
	.size	.Lubsan_data8, 32
.Lubsan_data8:
	.quad	.LC0
	.long	12
	.long	26
	.quad	.Lubsan_type0
	.byte	3
	.byte	3
	.zero	6
	.zero	32
	.align 32
	.type	.Lubsan_data9, @object
	.size	.Lubsan_data9, 16
.Lubsan_data9:
	.quad	.LC0
	.long	12
	.long	26
	.zero	48
	.align 32
	.type	.Lubsan_data10, @object
	.size	.Lubsan_data10, 32
.Lubsan_data10:
	.quad	.LC0
	.long	13
	.long	11
	.quad	.Lubsan_type0
	.byte	3
	.byte	3
	.zero	6
	.zero	32
	.align 32
	.type	.Lubsan_data11, @object
	.size	.Lubsan_data11, 16
.Lubsan_data11:
	.quad	.LC0
	.long	13
	.long	11
	.zero	48
	.align 32
	.type	.Lubsan_data12, @object
	.size	.Lubsan_data12, 32
.Lubsan_data12:
	.quad	.LC0
	.long	16
	.long	14
	.quad	.Lubsan_type0
	.byte	3
	.byte	3
	.zero	6
	.zero	32
	.align 32
	.type	.Lubsan_data13, @object
	.size	.Lubsan_data13, 16
.Lubsan_data13:
	.quad	.LC0
	.long	16
	.long	14
	.zero	48
	.align 32
	.type	.Lubsan_data14, @object
	.size	.Lubsan_data14, 32
.Lubsan_data14:
	.quad	.LC0
	.long	16
	.long	12
	.quad	.Lubsan_type0
	.byte	3
	.byte	3
	.zero	6
	.zero	32
	.align 32
	.type	.Lubsan_data15, @object
	.size	.Lubsan_data15, 16
.Lubsan_data15:
	.quad	.LC0
	.long	16
	.long	12
	.zero	48
	.align 32
	.type	.Lubsan_data16, @object
	.size	.Lubsan_data16, 32
.Lubsan_data16:
	.quad	.LC0
	.long	17
	.long	4
	.quad	.Lubsan_type0
	.byte	3
	.byte	3
	.zero	6
	.zero	32
	.align 32
	.type	.Lubsan_data17, @object
	.size	.Lubsan_data17, 16
.Lubsan_data17:
	.quad	.LC0
	.long	17
	.long	4
	.zero	48
	.align 32
	.type	.Lubsan_data18, @object
	.size	.Lubsan_data18, 32
.Lubsan_data18:
	.quad	.LC0
	.long	18
	.long	9
	.quad	.Lubsan_type0
	.byte	3
	.byte	3
	.zero	6
	.zero	32
	.align 32
	.type	.Lubsan_data19, @object
	.size	.Lubsan_data19, 16
.Lubsan_data19:
	.quad	.LC0
	.long	18
	.long	9
	.zero	48
	.align 32
	.type	.Lubsan_data20, @object
	.size	.Lubsan_data20, 32
.Lubsan_data20:
	.quad	.LC0
	.long	20
	.long	28
	.quad	.Lubsan_type0
	.byte	3
	.byte	3
	.zero	6
	.zero	32
	.align 32
	.type	.Lubsan_data21, @object
	.size	.Lubsan_data21, 16
.Lubsan_data21:
	.quad	.LC0
	.long	20
	.long	28
	.zero	48
	.align 32
	.type	.Lubsan_data22, @object
	.size	.Lubsan_data22, 32
.Lubsan_data22:
	.quad	.LC0
	.long	25
	.long	13
	.quad	.Lubsan_type0
	.byte	3
	.byte	3
	.zero	6
	.zero	32
	.align 32
	.type	.Lubsan_data23, @object
	.size	.Lubsan_data23, 16
.Lubsan_data23:
	.quad	.LC0
	.long	25
	.long	13
	.zero	48
	.align 32
	.type	.Lubsan_data24, @object
	.size	.Lubsan_data24, 16
.Lubsan_data24:
	.quad	.LC0
	.long	25
	.long	13
	.zero	48
	.align 32
	.type	.Lubsan_data25, @object
	.size	.Lubsan_data25, 32
.Lubsan_data25:
	.quad	.LC0
	.long	25
	.long	13
	.quad	.Lubsan_type0
	.byte	3
	.byte	3
	.zero	6
	.zero	32
	.align 32
	.type	.Lubsan_data26, @object
	.size	.Lubsan_data26, 16
.Lubsan_data26:
	.quad	.LC0
	.long	25
	.long	13
	.zero	48
	.section	.rodata
	.align 32
.LC1:
	.string	"(stk) != NULL"
	.zero	50
	.align 32
.LC2:
	.string	"stk->data != NULL"
	.zero	46
	.text
	.globl	stack_ctor
	.type	stack_ctor, @function
stack_ctor:
.LASANPC0:
.LFB0:
	.cfi_startproc
	pushq	%rbp
	.cfi_def_cfa_offset 16
	.cfi_offset 6, -16
	movq	%rsp, %rbp
	.cfi_def_cfa_register 6
	subq	$32, %rsp
	movq	%rdi, -8(%rbp)
	movq	%rsi, -16(%rbp)
	movq	%rdx, -24(%rbp)
	cmpq	$0, -8(%rbp)
	jne	.L2
	call	__asan_handle_no_return
	movl	$__PRETTY_FUNCTION__.14, %ecx
	movl	$6, %edx
	movl	$.LC0, %esi
	movl	$.LC1, %edi
	call	__assert_fail
.L2:
	cmpq	$0, -8(%rbp)
	je	.L53
	movq	-8(%rbp), %rax
	cmpq	$0, -8(%rbp)
	je	.L5
	movq	%rax, %rdx
	andl	$7, %edx
	testq	%rdx, %rdx
	je	.L6
.L5:
	movq	%rax, %rsi
	movl	$.Lubsan_data2, %edi
	call	__ubsan_handle_type_mismatch_v1_abort
.L6:
	movq	-8(%rbp), %rax
	leaq	16(%rax), %rdx
	cmpq	$-16, %rax
	jb	.L7
	movq	-8(%rbp), %rax
	movq	%rax, %rsi
	movl	$.Lubsan_data3, %edi
	call	__ubsan_handle_pointer_overflow_abort
.L7:
	movq	-8(%rbp), %rax
	addq	$16, %rax
	movq	%rax, %rdx
	shrq	$3, %rdx
	addq	$2147450880, %rdx
	movzbl	(%rdx), %edx
	testb	%dl, %dl
	je	.L8
	movq	%rax, %rdi
	call	__asan_report_store8
.L8:
	movq	-8(%rbp), %rax
	movq	-24(%rbp), %rdx
	movq	%rdx, 16(%rax)
	movq	-8(%rbp), %rax
	cmpq	$0, -8(%rbp)
	je	.L9
	movq	%rax, %rdx
	andl	$7, %edx
	testq	%rdx, %rdx
	je	.L10
.L9:
	movq	%rax, %rsi
	movl	$.Lubsan_data4, %edi
	call	__ubsan_handle_type_mismatch_v1_abort
.L10:
	movq	-8(%rbp), %rax
	leaq	32(%rax), %rdx
	cmpq	$-32, %rax
	jb	.L11
	movq	-8(%rbp), %rax
	movq	%rax, %rsi
	movl	$.Lubsan_data5, %edi
	call	__ubsan_handle_pointer_overflow_abort
.L11:
	movq	-8(%rbp), %rax
	addq	$32, %rax
	movq	%rax, %rdx
	shrq	$3, %rdx
	addq	$2147450880, %rdx
	movzbl	(%rdx), %edx
	testb	%dl, %dl
	je	.L12
	movq	%rax, %rdi
	call	__asan_report_store8
.L12:
	movq	-8(%rbp), %rax
	movq	-16(%rbp), %rdx
	movq	%rdx, 32(%rax)
	movq	-8(%rbp), %rax
	movq	%rax, %rdi
	call	stack_size_calc
	movq	%rax, %rdx
	movq	-8(%rbp), %rax
	cmpq	$0, -8(%rbp)
	je	.L13
	movq	%rax, %rcx
	andl	$7, %ecx
	testq	%rcx, %rcx
	je	.L14
.L13:
	movq	%rax, %rsi
	movl	$.Lubsan_data6, %edi
	call	__ubsan_handle_type_mismatch_v1_abort
.L14:
	movq	-8(%rbp), %rax
	leaq	40(%rax), %rcx
	cmpq	$-40, %rax
	jb	.L15
	movq	-8(%rbp), %rax
	movq	%rcx, %rdx
	movq	%rax, %rsi
	movl	$.Lubsan_data7, %edi
	call	__ubsan_handle_pointer_overflow_abort
.L15:
	movq	-8(%rbp), %rax
	addq	$40, %rax
	movq	%rax, %rcx
	shrq	$3, %rcx
	addq	$2147450880, %rcx
	movzbl	(%rcx), %ecx
	testb	%cl, %cl
	je	.L16
	movq	%rax, %rdi
	call	__asan_report_store8
.L16:
	movq	-8(%rbp), %rax
	movq	%rdx, 40(%rax)
	movq	-8(%rbp), %rax
	cmpq	$0, -8(%rbp)
	je	.L17
	movq	%rax, %rdx
	andl	$7, %edx
	testq	%rdx, %rdx
	je	.L18
.L17:
	movq	%rax, %rsi
	movl	$.Lubsan_data8, %edi
	call	__ubsan_handle_type_mismatch_v1_abort
.L18:
	movq	-8(%rbp), %rax
	leaq	24(%rax), %rdx
	cmpq	$-24, %rax
	jb	.L19
	movq	-8(%rbp), %rax
	movq	%rax, %rsi
	movl	$.Lubsan_data9, %edi
	call	__ubsan_handle_pointer_overflow_abort
.L19:
	movq	-8(%rbp), %rax
	addq	$24, %rax
	movq	%rax, %rdx
	movq	%rdx, %rax
	shrq	$3, %rax
	addq	$2147450880, %rax
	movzbl	(%rax), %eax
	testb	%al, %al
	setne	%cl
	cmpb	$1, %al
	setle	%al
	andl	%ecx, %eax
	testb	%al, %al
	je	.L20
	movq	%rdx, %rdi
	call	__asan_report_store2
.L20:
	movq	-8(%rbp), %rax
	movzbl	24(%rax), %edx
	orl	$1, %edx
	movb	%dl, 24(%rax)
	movq	-8(%rbp), %rax
	cmpq	$0, -8(%rbp)
	je	.L21
	movq	%rax, %rdx
	andl	$7, %edx
	testq	%rdx, %rdx
	je	.L22
.L21:
	movq	%rax, %rsi
	movl	$.Lubsan_data10, %edi
	call	__ubsan_handle_type_mismatch_v1_abort
.L22:
	movq	-8(%rbp), %rax
	leaq	48(%rax), %rdx
	cmpq	$-48, %rax
	jb	.L23
	movq	-8(%rbp), %rax
	movq	%rax, %rsi
	movl	$.Lubsan_data11, %edi
	call	__ubsan_handle_pointer_overflow_abort
.L23:
	movq	-8(%rbp), %rax
	addq	$48, %rax
	movq	%rax, %rdx
	shrq	$3, %rdx
	addq	$2147450880, %rdx
	movzbl	(%rdx), %edx
	testb	%dl, %dl
	je	.L24
	movq	%rax, %rdi
	call	__asan_report_store8
.L24:
	movq	-8(%rbp), %rax
	movq	$0, 48(%rax)
	movq	-8(%rbp), %rax
	cmpq	$0, -8(%rbp)
	je	.L25
	movq	%rax, %rdx
	andl	$7, %edx
	testq	%rdx, %rdx
	je	.L26
.L25:
	movq	%rax, %rsi
	movl	$.Lubsan_data12, %edi
	call	__ubsan_handle_type_mismatch_v1_abort
.L26:
	movq	-8(%rbp), %rax
	leaq	40(%rax), %rdx
	cmpq	$-40, %rax
	jb	.L27
	movq	-8(%rbp), %rax
	movq	%rax, %rsi
	movl	$.Lubsan_data13, %edi
	call	__ubsan_handle_pointer_overflow_abort
.L27:
	movq	-8(%rbp), %rax
	movq	40(%rax), %rax
	movq	%rax, %rdi
	call	malloc
	movq	%rax, %rcx
	movq	-8(%rbp), %rax
	cmpq	$0, -8(%rbp)
	je	.L28
	movq	%rax, %rdx
	andl	$7, %edx
	testq	%rdx, %rdx
	je	.L29
.L28:
	movq	%rax, %rsi
	movl	$.Lubsan_data14, %edi
	call	__ubsan_handle_type_mismatch_v1_abort
.L29:
	movq	-8(%rbp), %rax
	leaq	8(%rax), %rdx
	cmpq	$-8, %rax
	jb	.L30
	movq	-8(%rbp), %rax
	movq	%rax, %rsi
	movl	$.Lubsan_data15, %edi
	call	__ubsan_handle_pointer_overflow_abort
.L30:
	movq	-8(%rbp), %rax
	addq	$8, %rax
	movq	%rax, %rdx
	shrq	$3, %rdx
	addq	$2147450880, %rdx
	movzbl	(%rdx), %edx
	testb	%dl, %dl
	je	.L31
	movq	%rax, %rdi
	call	__asan_report_store8
.L31:
	movq	-8(%rbp), %rax
	movq	%rcx, 8(%rax)
	movq	-8(%rbp), %rax
	cmpq	$0, -8(%rbp)
	je	.L32
	movq	%rax, %rdx
	andl	$7, %edx
	testq	%rdx, %rdx
	je	.L33
.L32:
	movq	%rax, %rsi
	movl	$.Lubsan_data16, %edi
	call	__ubsan_handle_type_mismatch_v1_abort
.L33:
	movq	-8(%rbp), %rax
	leaq	8(%rax), %rdx
	cmpq	$-8, %rax
	jb	.L34
	movq	-8(%rbp), %rax
	movq	%rax, %rsi
	movl	$.Lubsan_data17, %edi
	call	__ubsan_handle_pointer_overflow_abort
.L34:
	movq	-8(%rbp), %rax
	movq	8(%rax), %rax
	testq	%rax, %rax
	jne	.L35
	call	__asan_handle_no_return
	movl	$__PRETTY_FUNCTION__.14, %ecx
	movl	$17, %edx
	movl	$.LC0, %esi
	movl	$.LC2, %edi
	call	__assert_fail
.L35:
	movq	-8(%rbp), %rax
	cmpq	$0, -8(%rbp)
	je	.L36
	movq	%rax, %rdx
	andl	$7, %edx
	testq	%rdx, %rdx
	je	.L37
.L36:
	movq	%rax, %rsi
	movl	$.Lubsan_data18, %edi
	call	__ubsan_handle_type_mismatch_v1_abort
.L37:
	movq	-8(%rbp), %rax
	leaq	8(%rax), %rdx
	cmpq	$-8, %rax
	jb	.L38
	movq	-8(%rbp), %rax
	movq	%rax, %rsi
	movl	$.Lubsan_data19, %edi
	call	__ubsan_handle_pointer_overflow_abort
.L38:
	movq	-8(%rbp), %rax
	addq	$8, %rax
	movq	%rax, %rdx
	shrq	$3, %rdx
	addq	$2147450880, %rdx
	movzbl	(%rdx), %edx
	testb	%dl, %dl
	je	.L39
	movq	%rax, %rdi
	call	__asan_report_load8
.L39:
	movq	-8(%rbp), %rax
	movq	8(%rax), %rax
	testq	%rax, %rax
	jne	.L40
	movq	-8(%rbp), %rax
	cmpq	$0, -8(%rbp)
	je	.L41
	movq	%rax, %rdx
	andl	$7, %edx
	testq	%rdx, %rdx
	je	.L42
.L41:
	movq	%rax, %rsi
	movl	$.Lubsan_data20, %edi
	call	__ubsan_handle_type_mismatch_v1_abort
.L42:
	movq	-8(%rbp), %rax
	leaq	24(%rax), %rdx
	cmpq	$-24, %rax
	jb	.L43
	movq	-8(%rbp), %rax
	movq	%rax, %rsi
	movl	$.Lubsan_data21, %edi
	call	__ubsan_handle_pointer_overflow_abort
.L43:
	movq	-8(%rbp), %rax
	addq	$24, %rax
	movq	%rax, %rdx
	movq	%rdx, %rax
	shrq	$3, %rax
	addq	$2147450880, %rax
	movzbl	(%rax), %eax
	testb	%al, %al
	setne	%cl
	cmpb	$1, %al
	setle	%al
	andl	%ecx, %eax
	testb	%al, %al
	je	.L44
	movq	%rdx, %rdi
	call	__asan_report_store2
.L44:
	movq	-8(%rbp), %rax
	movzbl	24(%rax), %edx
	orl	$8, %edx
	movb	%dl, 24(%rax)
.L40:
	movq	-8(%rbp), %rax
	cmpq	$0, -8(%rbp)
	je	.L45
	movq	%rax, %rdx
	andl	$7, %edx
	testq	%rdx, %rdx
	je	.L46
.L45:
	movq	%rax, %rsi
	movl	$.Lubsan_data22, %edi
	call	__ubsan_handle_type_mismatch_v1_abort
.L46:
	movq	-8(%rbp), %rax
	leaq	8(%rax), %rdx
	cmpq	$-8, %rax
	jb	.L47
	movq	-8(%rbp), %rax
	movq	%rax, %rsi
	movl	$.Lubsan_data23, %edi
	call	__ubsan_handle_pointer_overflow_abort
.L47:
	movq	-8(%rbp), %rax
	addq	$8, %rax
	movq	%rax, %rdx
	shrq	$3, %rdx
	addq	$2147450880, %rdx
	movzbl	(%rdx), %edx
	testb	%dl, %dl
	je	.L48
	movq	%rax, %rdi
	call	__asan_report_load8
.L48:
	movq	-8(%rbp), %rax
	movq	8(%rax), %rax
	movq	%rax, %rcx
	leaq	8(%rcx), %rdx
	cmpq	$-8, %rcx
	jb	.L49
	movq	%rax, %rsi
	movl	$.Lubsan_data24, %edi
	call	__ubsan_handle_pointer_overflow_abort
.L49:
	leaq	8(%rax), %rcx
	movq	-8(%rbp), %rax
	cmpq	$0, -8(%rbp)
	je	.L50
	movq	%rax, %rdx
	andl	$7, %edx
	testq	%rdx, %rdx
	je	.L51
.L50:
	movq	%rax, %rsi
	movl	$.Lubsan_data25, %edi
	call	__ubsan_handle_type_mismatch_v1_abort
.L51:
	movq	-8(%rbp), %rax
	leaq	8(%rax), %rdx
	cmpq	$-8, %rax
	jb	.L52
	movq	-8(%rbp), %rax
	movq	%rax, %rsi
	movl	$.Lubsan_data26, %edi
	call	__ubsan_handle_pointer_overflow_abort
.L52:
	movq	-8(%rbp), %rax
	movq	%rcx, 8(%rax)
	movq	-8(%rbp), %rax
	movabsq	$-7954798182897160910, %rdx
	movq	%rdx, %rsi
	movq	%rax, %rdi
	call	stack_set_canary_header
	movq	-8(%rbp), %rax
	movabsq	$-7954798182897160910, %rdx
	movq	%rdx, %rsi
	movq	%rax, %rdi
	call	stack_set_canary_data
	movq	-8(%rbp), %rax
	movq	%rax, %rdi
	call	stack_set_hash
	jmp	.L1
.L53:
	nop
.L1:
	leave
	.cfi_def_cfa 7, 8
	ret
	.cfi_endproc
.LFE0:
	.size	stack_ctor, .-stack_ctor
	.data
	.align 32
	.type	.Lubsan_data27, @object
	.size	.Lubsan_data27, 32
.Lubsan_data27:
	.quad	.LC0
	.long	41
	.long	9
	.quad	.Lubsan_type0
	.byte	3
	.byte	3
	.zero	6
	.zero	32
	.align 32
	.type	.Lubsan_data28, @object
	.size	.Lubsan_data28, 16
.Lubsan_data28:
	.quad	.LC0
	.long	41
	.long	9
	.zero	48
	.align 32
	.type	.Lubsan_data29, @object
	.size	.Lubsan_data29, 32
.Lubsan_data29:
	.quad	.LC0
	.long	41
	.long	21
	.quad	.Lubsan_type0
	.byte	3
	.byte	3
	.zero	6
	.zero	32
	.align 32
	.type	.Lubsan_data30, @object
	.size	.Lubsan_data30, 16
.Lubsan_data30:
	.quad	.LC0
	.long	41
	.long	21
	.zero	48
	.align 32
	.type	.Lubsan_data31, @object
	.size	.Lubsan_data31, 32
.Lubsan_data31:
	.quad	.LC0
	.long	47
	.long	2
	.quad	.Lubsan_type0
	.byte	3
	.byte	3
	.zero	6
	.zero	32
	.align 32
	.type	.Lubsan_data32, @object
	.size	.Lubsan_data32, 16
.Lubsan_data32:
	.quad	.LC0
	.long	47
	.long	2
	.zero	48
	.align 32
	.type	.Lubsan_data33, @object
	.size	.Lubsan_data33, 32
.Lubsan_data33:
	.quad	.LC0
	.long	47
	.long	14
	.quad	.Lubsan_type0
	.byte	3
	.byte	3
	.zero	6
	.zero	32
	.align 32
	.type	.Lubsan_data34, @object
	.size	.Lubsan_data34, 16
.Lubsan_data34:
	.quad	.LC0
	.long	47
	.long	14
	.zero	48
	.align 32
	.type	.Lubsan_data35, @object
	.size	.Lubsan_data35, 32
.Lubsan_data35:
	.quad	.LC0
	.long	47
	.long	26
	.quad	.Lubsan_type0
	.byte	3
	.byte	3
	.zero	6
	.zero	32
	.align 32
	.type	.Lubsan_data36, @object
	.size	.Lubsan_data36, 16
.Lubsan_data36:
	.quad	.LC0
	.long	47
	.long	26
	.zero	48
	.align 32
	.type	.Lubsan_data37, @object
	.size	.Lubsan_data37, 32
.Lubsan_data37:
	.quad	.LC0
	.long	47
	.long	43
	.quad	.Lubsan_type0
	.byte	3
	.byte	3
	.zero	6
	.zero	32
	.align 32
	.type	.Lubsan_data38, @object
	.size	.Lubsan_data38, 16
.Lubsan_data38:
	.quad	.LC0
	.long	47
	.long	43
	.zero	48
	.align 32
	.type	.Lubsan_data39, @object
	.size	.Lubsan_data39, 16
.Lubsan_data39:
	.quad	.LC0
	.long	47
	.long	2
	.zero	48
	.align 32
	.type	.Lubsan_data40, @object
	.size	.Lubsan_data40, 32
.Lubsan_data40:
	.quad	.LC0
	.long	49
	.long	5
	.quad	.Lubsan_type0
	.byte	3
	.byte	3
	.zero	6
	.zero	32
	.align 32
	.type	.Lubsan_data41, @object
	.size	.Lubsan_data41, 16
.Lubsan_data41:
	.quad	.LC0
	.long	49
	.long	5
	.zero	48
	.align 32
	.type	.Lubsan_data42, @object
	.size	.Lubsan_data42, 32
.Lubsan_data42:
	.quad	.LC0
	.long	49
	.long	10
	.quad	.Lubsan_type0
	.byte	3
	.byte	3
	.zero	6
	.zero	32
	.align 32
	.type	.Lubsan_data43, @object
	.size	.Lubsan_data43, 16
.Lubsan_data43:
	.quad	.LC0
	.long	49
	.long	10
	.zero	48
	.section	.rodata
	.align 32
.LC3:
	.string	"(value) != NULL"
	.zero	48
	.text
	.globl	stack_push
	.type	stack_push, @function
stack_push:
.LASANPC1:
.LFB1:
	.cfi_startproc
	pushq	%rbp
	.cfi_def_cfa_offset 16
	.cfi_offset 6, -16
	movq	%rsp, %rbp
	.cfi_def_cfa_register 6
	subq	$16, %rsp
	movq	%rdi, -8(%rbp)
	movq	%rsi, -16(%rbp)
	cmpq	$0, -8(%rbp)
	jne	.L55
	call	__asan_handle_no_return
	movl	$__PRETTY_FUNCTION__.13, %ecx
	movl	$37, %edx
	movl	$.LC0, %esi
	movl	$.LC1, %edi
	call	__assert_fail
.L55:
	cmpq	$0, -8(%rbp)
	je	.L94
	cmpq	$0, -16(%rbp)
	jne	.L58
	call	__asan_handle_no_return
	movl	$__PRETTY_FUNCTION__.13, %ecx
	movl	$38, %edx
	movl	$.LC0, %esi
	movl	$.LC3, %edi
	call	__assert_fail
.L58:
	cmpq	$0, -16(%rbp)
	je	.L95
	movq	-8(%rbp), %rax
	cmpq	$0, -8(%rbp)
	je	.L60
	movq	%rax, %rdx
	andl	$7, %edx
	testq	%rdx, %rdx
	je	.L61
.L60:
	movq	%rax, %rsi
	movl	$.Lubsan_data27, %edi
	call	__ubsan_handle_type_mismatch_v1_abort
.L61:
	movq	-8(%rbp), %rax
	leaq	48(%rax), %rdx
	cmpq	$-48, %rax
	jb	.L62
	movq	-8(%rbp), %rax
	movq	%rax, %rsi
	movl	$.Lubsan_data28, %edi
	call	__ubsan_handle_pointer_overflow_abort
.L62:
	movq	-8(%rbp), %rax
	addq	$48, %rax
	movq	%rax, %rdx
	shrq	$3, %rdx
	addq	$2147450880, %rdx
	movzbl	(%rdx), %edx
	testb	%dl, %dl
	je	.L63
	movq	%rax, %rdi
	call	__asan_report_load8
.L63:
	movq	-8(%rbp), %rax
	movq	48(%rax), %rcx
	movq	-8(%rbp), %rax
	cmpq	$0, -8(%rbp)
	je	.L64
	movq	%rax, %rdx
	andl	$7, %edx
	testq	%rdx, %rdx
	je	.L65
.L64:
	movq	%rax, %rsi
	movl	$.Lubsan_data29, %edi
	call	__ubsan_handle_type_mismatch_v1_abort
.L65:
	movq	-8(%rbp), %rax
	leaq	32(%rax), %rdx
	cmpq	$-32, %rax
	jb	.L66
	movq	-8(%rbp), %rax
	movq	%rax, %rsi
	movl	$.Lubsan_data30, %edi
	call	__ubsan_handle_pointer_overflow_abort
.L66:
	movq	-8(%rbp), %rax
	addq	$32, %rax
	movq	%rax, %rdx
	shrq	$3, %rdx
	addq	$2147450880, %rdx
	movzbl	(%rdx), %edx
	testb	%dl, %dl
	je	.L67
	movq	%rax, %rdi
	call	__asan_report_load8
.L67:
	movq	-8(%rbp), %rax
	movq	32(%rax), %rax
	cmpq	%rax, %rcx
	jne	.L68
	movq	-8(%rbp), %rax
	movl	$2, %esi
	movq	%rax, %rdi
	call	stack_resize
.L68:
	movq	-8(%rbp), %rax
	cmpq	$0, -8(%rbp)
	je	.L69
	movq	%rax, %rdx
	andl	$7, %edx
	testq	%rdx, %rdx
	je	.L70
.L69:
	movq	%rax, %rsi
	movl	$.Lubsan_data31, %edi
	call	__ubsan_handle_type_mismatch_v1_abort
.L70:
	movq	-8(%rbp), %rax
	leaq	16(%rax), %rdx
	cmpq	$-16, %rax
	jb	.L71
	movq	-8(%rbp), %rax
	movq	%rax, %rsi
	movl	$.Lubsan_data32, %edi
	call	__ubsan_handle_pointer_overflow_abort
.L71:
	movq	-8(%rbp), %rax
	addq	$16, %rax
	movq	%rax, %rdx
	shrq	$3, %rdx
	addq	$2147450880, %rdx
	movzbl	(%rdx), %edx
	testb	%dl, %dl
	je	.L72
	movq	%rax, %rdi
	call	__asan_report_load8
.L72:
	movq	-8(%rbp), %rax
	movq	16(%rax), %rdi
	movq	-8(%rbp), %rax
	cmpq	$0, -8(%rbp)
	je	.L73
	movq	%rax, %rdx
	andl	$7, %edx
	testq	%rdx, %rdx
	je	.L74
.L73:
	movq	%rax, %rsi
	movl	$.Lubsan_data33, %edi
	call	__ubsan_handle_type_mismatch_v1_abort
.L74:
	movq	-8(%rbp), %rax
	leaq	8(%rax), %rdx
	cmpq	$-8, %rax
	jb	.L75
	movq	-8(%rbp), %rax
	movq	%rax, %rsi
	movl	$.Lubsan_data34, %edi
	call	__ubsan_handle_pointer_overflow_abort
.L75:
	movq	-8(%rbp), %rax
	addq	$8, %rax
	movq	%rax, %rdx
	shrq	$3, %rdx
	addq	$2147450880, %rdx
	movzbl	(%rdx), %edx
	testb	%dl, %dl
	je	.L76
	movq	%rax, %rdi
	call	__asan_report_load8
.L76:
	movq	-8(%rbp), %rax
	movq	8(%rax), %rcx
	movq	-8(%rbp), %rax
	cmpq	$0, -8(%rbp)
	je	.L77
	movq	%rax, %rdx
	andl	$7, %edx
	testq	%rdx, %rdx
	je	.L78
.L77:
	movq	%rax, %rsi
	movl	$.Lubsan_data35, %edi
	call	__ubsan_handle_type_mismatch_v1_abort
.L78:
	movq	-8(%rbp), %rax
	leaq	16(%rax), %rdx
	cmpq	$-16, %rax
	jb	.L79
	movq	-8(%rbp), %rax
	movq	%rax, %rsi
	movl	$.Lubsan_data36, %edi
	call	__ubsan_handle_pointer_overflow_abort
.L79:
	movq	-8(%rbp), %rax
	movq	16(%rax), %rsi
	movq	-8(%rbp), %rax
	cmpq	$0, -8(%rbp)
	je	.L80
	movq	%rax, %rdx
	andl	$7, %edx
	testq	%rdx, %rdx
	je	.L81
.L80:
	movq	%rax, %rsi
	movl	$.Lubsan_data37, %edi
	call	__ubsan_handle_type_mismatch_v1_abort
.L81:
	movq	-8(%rbp), %rax
	leaq	48(%rax), %rdx
	cmpq	$-48, %rax
	jb	.L82
	movq	-8(%rbp), %rax
	movq	%rax, %rsi
	movl	$.Lubsan_data38, %edi
	call	__ubsan_handle_pointer_overflow_abort
.L82:
	movq	-8(%rbp), %rax
	addq	$48, %rax
	movq	%rax, %rdx
	shrq	$3, %rdx
	addq	$2147450880, %rdx
	movzbl	(%rdx), %edx
	testb	%dl, %dl
	je	.L83
	movq	%rax, %rdi
	call	__asan_report_load8
.L83:
	movq	-8(%rbp), %rax
	movq	48(%rax), %rax
	imulq	%rax, %rsi
	movq	%rsi, %rdx
	movq	%rcx, %rsi
	leaq	(%rsi,%rdx), %rax
	movq	%rdx, %r8
	notq	%r8
	shrq	$63, %r8
	testb	%r8b, %r8b
	je	.L84
	cmpq	%rsi, %rax
	jnb	.L85
.L86:
	movq	%rax, %rdx
	movq	%rcx, %rsi
	movl	$.Lubsan_data39, %edi
	call	__ubsan_handle_pointer_overflow_abort
.L84:
	cmpq	%rsi, %rax
	ja	.L86
.L85:
	addq	%rdx, %rcx
	movq	-16(%rbp), %rax
	movq	%rdi, %rdx
	movq	%rax, %rsi
	movq	%rcx, %rdi
	call	meowcpy
	movq	-8(%rbp), %rax
	cmpq	$0, -8(%rbp)
	je	.L87
	movq	%rax, %rdx
	andl	$7, %edx
	testq	%rdx, %rdx
	je	.L88
.L87:
	movq	%rax, %rsi
	movl	$.Lubsan_data40, %edi
	call	__ubsan_handle_type_mismatch_v1_abort
.L88:
	movq	-8(%rbp), %rax
	leaq	48(%rax), %rdx
	cmpq	$-48, %rax
	jb	.L89
	movq	-8(%rbp), %rax
	movq	%rax, %rsi
	movl	$.Lubsan_data41, %edi
	call	__ubsan_handle_pointer_overflow_abort
.L89:
	movq	-8(%rbp), %rax
	addq	$48, %rax
	movq	%rax, %rdx
	shrq	$3, %rdx
	addq	$2147450880, %rdx
	movzbl	(%rdx), %edx
	testb	%dl, %dl
	je	.L90
	movq	%rax, %rdi
	call	__asan_report_load8
.L90:
	movq	-8(%rbp), %rax
	movq	48(%rax), %rax
	leaq	1(%rax), %rcx
	movq	-8(%rbp), %rax
	cmpq	$0, -8(%rbp)
	je	.L91
	movq	%rax, %rdx
	andl	$7, %edx
	testq	%rdx, %rdx
	je	.L92
.L91:
	movq	%rax, %rsi
	movl	$.Lubsan_data42, %edi
	call	__ubsan_handle_type_mismatch_v1_abort
.L92:
	movq	-8(%rbp), %rax
	leaq	48(%rax), %rdx
	cmpq	$-48, %rax
	jb	.L93
	movq	-8(%rbp), %rax
	movq	%rax, %rsi
	movl	$.Lubsan_data43, %edi
	call	__ubsan_handle_pointer_overflow_abort
.L93:
	movq	-8(%rbp), %rax
	movq	%rcx, 48(%rax)
	movq	-8(%rbp), %rax
	movq	%rax, %rdi
	call	stack_set_hash
	jmp	.L54
.L94:
	nop
	jmp	.L54
.L95:
	nop
.L54:
	leave
	.cfi_def_cfa 7, 8
	ret
	.cfi_endproc
.LFE1:
	.size	stack_push, .-stack_push
	.data
	.align 32
	.type	.Lubsan_data44, @object
	.size	.Lubsan_data44, 32
.Lubsan_data44:
	.quad	.LC0
	.long	62
	.long	9
	.quad	.Lubsan_type0
	.byte	3
	.byte	3
	.zero	6
	.zero	32
	.align 32
	.type	.Lubsan_data45, @object
	.size	.Lubsan_data45, 16
.Lubsan_data45:
	.quad	.LC0
	.long	62
	.long	9
	.zero	48
	.align 32
	.type	.Lubsan_data46, @object
	.size	.Lubsan_data46, 32
.Lubsan_data46:
	.quad	.LC0
	.long	64
	.long	25
	.quad	.Lubsan_type0
	.byte	3
	.byte	3
	.zero	6
	.zero	32
	.align 32
	.type	.Lubsan_data47, @object
	.size	.Lubsan_data47, 16
.Lubsan_data47:
	.quad	.LC0
	.long	64
	.long	25
	.zero	48
	.align 32
	.type	.Lubsan_data48, @object
	.size	.Lubsan_data48, 32
.Lubsan_data48:
	.quad	.LC0
	.long	69
	.long	5
	.quad	.Lubsan_type0
	.byte	3
	.byte	3
	.zero	6
	.zero	32
	.align 32
	.type	.Lubsan_data49, @object
	.size	.Lubsan_data49, 16
.Lubsan_data49:
	.quad	.LC0
	.long	69
	.long	5
	.zero	48
	.align 32
	.type	.Lubsan_data50, @object
	.size	.Lubsan_data50, 32
.Lubsan_data50:
	.quad	.LC0
	.long	69
	.long	10
	.quad	.Lubsan_type0
	.byte	3
	.byte	3
	.zero	6
	.zero	32
	.align 32
	.type	.Lubsan_data51, @object
	.size	.Lubsan_data51, 16
.Lubsan_data51:
	.quad	.LC0
	.long	69
	.long	10
	.zero	48
	.align 32
	.type	.Lubsan_data52, @object
	.size	.Lubsan_data52, 32
.Lubsan_data52:
	.quad	.LC0
	.long	71
	.long	2
	.quad	.Lubsan_type0
	.byte	3
	.byte	3
	.zero	6
	.zero	32
	.align 32
	.type	.Lubsan_data53, @object
	.size	.Lubsan_data53, 16
.Lubsan_data53:
	.quad	.LC0
	.long	71
	.long	2
	.zero	48
	.align 32
	.type	.Lubsan_data54, @object
	.size	.Lubsan_data54, 32
.Lubsan_data54:
	.quad	.LC0
	.long	71
	.long	23
	.quad	.Lubsan_type0
	.byte	3
	.byte	3
	.zero	6
	.zero	32
	.align 32
	.type	.Lubsan_data55, @object
	.size	.Lubsan_data55, 16
.Lubsan_data55:
	.quad	.LC0
	.long	71
	.long	23
	.zero	48
	.align 32
	.type	.Lubsan_data56, @object
	.size	.Lubsan_data56, 32
.Lubsan_data56:
	.quad	.LC0
	.long	71
	.long	35
	.quad	.Lubsan_type0
	.byte	3
	.byte	3
	.zero	6
	.zero	32
	.align 32
	.type	.Lubsan_data57, @object
	.size	.Lubsan_data57, 16
.Lubsan_data57:
	.quad	.LC0
	.long	71
	.long	35
	.zero	48
	.align 32
	.type	.Lubsan_data58, @object
	.size	.Lubsan_data58, 32
.Lubsan_data58:
	.quad	.LC0
	.long	71
	.long	50
	.quad	.Lubsan_type0
	.byte	3
	.byte	3
	.zero	6
	.zero	32
	.align 32
	.type	.Lubsan_data59, @object
	.size	.Lubsan_data59, 16
.Lubsan_data59:
	.quad	.LC0
	.long	71
	.long	50
	.zero	48
	.align 32
	.type	.Lubsan_data60, @object
	.size	.Lubsan_data60, 16
.Lubsan_data60:
	.quad	.LC0
	.long	71
	.long	2
	.zero	48
	.section	.rodata
	.align 32
.LC4:
	.string	"(ret_mem) != NULL"
	.zero	46
	.text
	.globl	stack_pop
	.type	stack_pop, @function
stack_pop:
.LASANPC2:
.LFB2:
	.cfi_startproc
	pushq	%rbp
	.cfi_def_cfa_offset 16
	.cfi_offset 6, -16
	movq	%rsp, %rbp
	.cfi_def_cfa_register 6
	subq	$16, %rsp
	movq	%rdi, -8(%rbp)
	movq	%rsi, -16(%rbp)
	cmpq	$0, -8(%rbp)
	jne	.L97
	call	__asan_handle_no_return
	movl	$__PRETTY_FUNCTION__.12, %ecx
	movl	$58, %edx
	movl	$.LC0, %esi
	movl	$.LC1, %edi
	call	__assert_fail
.L97:
	cmpq	$0, -8(%rbp)
	je	.L135
	cmpq	$0, -16(%rbp)
	jne	.L100
	call	__asan_handle_no_return
	movl	$__PRETTY_FUNCTION__.12, %ecx
	movl	$59, %edx
	movl	$.LC0, %esi
	movl	$.LC4, %edi
	call	__assert_fail
.L100:
	cmpq	$0, -16(%rbp)
	je	.L136
	movq	-8(%rbp), %rax
	cmpq	$0, -8(%rbp)
	je	.L102
	movq	%rax, %rdx
	andl	$7, %edx
	testq	%rdx, %rdx
	je	.L103
.L102:
	movq	%rax, %rsi
	movl	$.Lubsan_data44, %edi
	call	__ubsan_handle_type_mismatch_v1_abort
.L103:
	movq	-8(%rbp), %rax
	leaq	48(%rax), %rdx
	cmpq	$-48, %rax
	jb	.L104
	movq	-8(%rbp), %rax
	movq	%rax, %rsi
	movl	$.Lubsan_data45, %edi
	call	__ubsan_handle_pointer_overflow_abort
.L104:
	movq	-8(%rbp), %rax
	addq	$48, %rax
	movq	%rax, %rdx
	shrq	$3, %rdx
	addq	$2147450880, %rdx
	movzbl	(%rdx), %edx
	testb	%dl, %dl
	je	.L105
	movq	%rax, %rdi
	call	__asan_report_load8
.L105:
	movq	-8(%rbp), %rax
	movq	48(%rax), %rax
	testq	%rax, %rax
	jne	.L106
	movq	-8(%rbp), %rax
	cmpq	$0, -8(%rbp)
	je	.L107
	movq	%rax, %rdx
	andl	$7, %edx
	testq	%rdx, %rdx
	je	.L108
.L107:
	movq	%rax, %rsi
	movl	$.Lubsan_data46, %edi
	call	__ubsan_handle_type_mismatch_v1_abort
.L108:
	movq	-8(%rbp), %rax
	leaq	24(%rax), %rdx
	cmpq	$-24, %rax
	jb	.L109
	movq	-8(%rbp), %rax
	movq	%rax, %rsi
	movl	$.Lubsan_data47, %edi
	call	__ubsan_handle_pointer_overflow_abort
.L109:
	movq	-8(%rbp), %rax
	addq	$24, %rax
	movq	%rax, %rdx
	movq	%rdx, %rax
	shrq	$3, %rax
	addq	$2147450880, %rax
	movzbl	(%rax), %eax
	testb	%al, %al
	setne	%cl
	cmpb	$1, %al
	setle	%al
	andl	%ecx, %eax
	testb	%al, %al
	je	.L110
	movq	%rdx, %rdi
	call	__asan_report_store2
.L110:
	movq	-8(%rbp), %rax
	movzbl	24(%rax), %edx
	orl	$4, %edx
	movb	%dl, 24(%rax)
	jmp	.L96
.L106:
	movq	-8(%rbp), %rax
	cmpq	$0, -8(%rbp)
	je	.L111
	movq	%rax, %rdx
	andl	$7, %edx
	testq	%rdx, %rdx
	je	.L112
.L111:
	movq	%rax, %rsi
	movl	$.Lubsan_data48, %edi
	call	__ubsan_handle_type_mismatch_v1_abort
.L112:
	movq	-8(%rbp), %rax
	leaq	48(%rax), %rdx
	cmpq	$-48, %rax
	jb	.L113
	movq	-8(%rbp), %rax
	movq	%rax, %rsi
	movl	$.Lubsan_data49, %edi
	call	__ubsan_handle_pointer_overflow_abort
.L113:
	movq	-8(%rbp), %rax
	addq	$48, %rax
	movq	%rax, %rdx
	shrq	$3, %rdx
	addq	$2147450880, %rdx
	movzbl	(%rdx), %edx
	testb	%dl, %dl
	je	.L114
	movq	%rax, %rdi
	call	__asan_report_load8
.L114:
	movq	-8(%rbp), %rax
	movq	48(%rax), %rax
	leaq	-1(%rax), %rcx
	movq	-8(%rbp), %rax
	cmpq	$0, -8(%rbp)
	je	.L115
	movq	%rax, %rdx
	andl	$7, %edx
	testq	%rdx, %rdx
	je	.L116
.L115:
	movq	%rax, %rsi
	movl	$.Lubsan_data50, %edi
	call	__ubsan_handle_type_mismatch_v1_abort
.L116:
	movq	-8(%rbp), %rax
	leaq	48(%rax), %rdx
	cmpq	$-48, %rax
	jb	.L117
	movq	-8(%rbp), %rax
	movq	%rax, %rsi
	movl	$.Lubsan_data51, %edi
	call	__ubsan_handle_pointer_overflow_abort
.L117:
	movq	-8(%rbp), %rax
	movq	%rcx, 48(%rax)
	movq	-8(%rbp), %rax
	cmpq	$0, -8(%rbp)
	je	.L118
	movq	%rax, %rdx
	andl	$7, %edx
	testq	%rdx, %rdx
	je	.L119
.L118:
	movq	%rax, %rsi
	movl	$.Lubsan_data52, %edi
	call	__ubsan_handle_type_mismatch_v1_abort
.L119:
	movq	-8(%rbp), %rax
	leaq	16(%rax), %rdx
	cmpq	$-16, %rax
	jb	.L120
	movq	-8(%rbp), %rax
	movq	%rax, %rsi
	movl	$.Lubsan_data53, %edi
	call	__ubsan_handle_pointer_overflow_abort
.L120:
	movq	-8(%rbp), %rax
	addq	$16, %rax
	movq	%rax, %rdx
	shrq	$3, %rdx
	addq	$2147450880, %rdx
	movzbl	(%rdx), %edx
	testb	%dl, %dl
	je	.L121
	movq	%rax, %rdi
	call	__asan_report_load8
.L121:
	movq	-8(%rbp), %rax
	movq	16(%rax), %rdi
	movq	-8(%rbp), %rax
	cmpq	$0, -8(%rbp)
	je	.L122
	movq	%rax, %rdx
	andl	$7, %edx
	testq	%rdx, %rdx
	je	.L123
.L122:
	movq	%rax, %rsi
	movl	$.Lubsan_data54, %edi
	call	__ubsan_handle_type_mismatch_v1_abort
.L123:
	movq	-8(%rbp), %rax
	leaq	8(%rax), %rdx
	cmpq	$-8, %rax
	jb	.L124
	movq	-8(%rbp), %rax
	movq	%rax, %rsi
	movl	$.Lubsan_data55, %edi
	call	__ubsan_handle_pointer_overflow_abort
.L124:
	movq	-8(%rbp), %rax
	addq	$8, %rax
	movq	%rax, %rdx
	shrq	$3, %rdx
	addq	$2147450880, %rdx
	movzbl	(%rdx), %edx
	testb	%dl, %dl
	je	.L125
	movq	%rax, %rdi
	call	__asan_report_load8
.L125:
	movq	-8(%rbp), %rax
	movq	8(%rax), %rcx
	movq	-8(%rbp), %rax
	cmpq	$0, -8(%rbp)
	je	.L126
	movq	%rax, %rdx
	andl	$7, %edx
	testq	%rdx, %rdx
	je	.L127
.L126:
	movq	%rax, %rsi
	movl	$.Lubsan_data56, %edi
	call	__ubsan_handle_type_mismatch_v1_abort
.L127:
	movq	-8(%rbp), %rax
	leaq	16(%rax), %rdx
	cmpq	$-16, %rax
	jb	.L128
	movq	-8(%rbp), %rax
	movq	%rax, %rsi
	movl	$.Lubsan_data57, %edi
	call	__ubsan_handle_pointer_overflow_abort
.L128:
	movq	-8(%rbp), %rax
	movq	16(%rax), %rsi
	movq	-8(%rbp), %rax
	cmpq	$0, -8(%rbp)
	je	.L129
	movq	%rax, %rdx
	andl	$7, %edx
	testq	%rdx, %rdx
	je	.L130
.L129:
	movq	%rax, %rsi
	movl	$.Lubsan_data58, %edi
	call	__ubsan_handle_type_mismatch_v1_abort
.L130:
	movq	-8(%rbp), %rax
	leaq	48(%rax), %rdx
	cmpq	$-48, %rax
	jb	.L131
	movq	-8(%rbp), %rax
	movq	%rax, %rsi
	movl	$.Lubsan_data59, %edi
	call	__ubsan_handle_pointer_overflow_abort
.L131:
	movq	-8(%rbp), %rax
	movq	48(%rax), %rax
	imulq	%rax, %rsi
	movq	%rsi, %rdx
	movq	%rcx, %rsi
	leaq	(%rsi,%rdx), %rax
	movq	%rdx, %r8
	notq	%r8
	shrq	$63, %r8
	testb	%r8b, %r8b
	je	.L132
	cmpq	%rsi, %rax
	jnb	.L133
.L134:
	movq	%rax, %rdx
	movq	%rcx, %rsi
	movl	$.Lubsan_data60, %edi
	call	__ubsan_handle_pointer_overflow_abort
.L132:
	cmpq	%rsi, %rax
	ja	.L134
.L133:
	addq	%rdx, %rcx
	movq	-16(%rbp), %rax
	movq	%rdi, %rdx
	movq	%rcx, %rsi
	movq	%rax, %rdi
	call	meowcpy
	movq	-8(%rbp), %rax
	movq	%rax, %rdi
	call	stack_set_hash
	jmp	.L96
.L135:
	nop
	jmp	.L96
.L136:
	nop
.L96:
	leave
	.cfi_def_cfa 7, 8
	ret
	.cfi_endproc
.LFE2:
	.size	stack_pop, .-stack_pop
	.data
	.align 32
	.type	.Lubsan_data61, @object
	.size	.Lubsan_data61, 32
.Lubsan_data61:
	.quad	.LC0
	.long	83
	.long	36
	.quad	.Lubsan_type0
	.byte	3
	.byte	3
	.zero	6
	.zero	32
	.align 32
	.type	.Lubsan_data62, @object
	.size	.Lubsan_data62, 16
.Lubsan_data62:
	.quad	.LC0
	.long	83
	.long	36
	.zero	48
	.align 32
	.type	.Lubsan_data63, @object
	.size	.Lubsan_data63, 32
.Lubsan_data63:
	.quad	.LC0
	.long	83
	.long	16
	.quad	.Lubsan_type0
	.byte	3
	.byte	3
	.zero	6
	.zero	32
	.align 32
	.type	.Lubsan_data64, @object
	.size	.Lubsan_data64, 16
.Lubsan_data64:
	.quad	.LC0
	.long	83
	.long	16
	.zero	48
	.align 32
	.type	.Lubsan_data65, @object
	.size	.Lubsan_data65, 32
.Lubsan_data65:
	.quad	.LC0
	.long	84
	.long	12
	.quad	.Lubsan_type0
	.byte	3
	.byte	3
	.zero	6
	.zero	32
	.align 32
	.type	.Lubsan_data66, @object
	.size	.Lubsan_data66, 16
.Lubsan_data66:
	.quad	.LC0
	.long	84
	.long	12
	.zero	48
	.align 32
	.type	.Lubsan_data67, @object
	.size	.Lubsan_data67, 32
.Lubsan_data67:
	.quad	.LC0
	.long	87
	.long	18
	.quad	.Lubsan_type0
	.byte	3
	.byte	3
	.zero	6
	.zero	32
	.align 32
	.type	.Lubsan_data68, @object
	.size	.Lubsan_data68, 16
.Lubsan_data68:
	.quad	.LC0
	.long	87
	.long	18
	.zero	48
	.align 32
	.type	.Lubsan_data69, @object
	.size	.Lubsan_data69, 16
.Lubsan_data69:
	.quad	.LC0
	.long	87
	.long	25
	.zero	48
	.align 32
	.type	.Lubsan_data70, @object
	.size	.Lubsan_data70, 32
.Lubsan_data70:
	.quad	.LC0
	.long	87
	.long	13
	.quad	.Lubsan_type0
	.byte	3
	.byte	3
	.zero	6
	.zero	32
	.align 32
	.type	.Lubsan_data71, @object
	.size	.Lubsan_data71, 16
.Lubsan_data71:
	.quad	.LC0
	.long	87
	.long	13
	.zero	48
	.align 32
	.type	.Lubsan_data72, @object
	.size	.Lubsan_data72, 32
.Lubsan_data72:
	.quad	.LC0
	.long	91
	.long	14
	.quad	.Lubsan_type0
	.byte	3
	.byte	3
	.zero	6
	.zero	32
	.align 32
	.type	.Lubsan_data73, @object
	.size	.Lubsan_data73, 16
.Lubsan_data73:
	.quad	.LC0
	.long	91
	.long	14
	.zero	48
	.align 32
	.type	.Lubsan_data74, @object
	.size	.Lubsan_data74, 32
.Lubsan_data74:
	.quad	.LC0
	.long	91
	.long	26
	.quad	.Lubsan_type0
	.byte	3
	.byte	3
	.zero	6
	.zero	32
	.align 32
	.type	.Lubsan_data75, @object
	.size	.Lubsan_data75, 16
.Lubsan_data75:
	.quad	.LC0
	.long	91
	.long	26
	.zero	48
	.align 32
	.type	.Lubsan_data76, @object
	.size	.Lubsan_data76, 32
.Lubsan_data76:
	.quad	.LC0
	.long	91
	.long	12
	.quad	.Lubsan_type0
	.byte	3
	.byte	3
	.zero	6
	.zero	32
	.align 32
	.type	.Lubsan_data77, @object
	.size	.Lubsan_data77, 16
.Lubsan_data77:
	.quad	.LC0
	.long	91
	.long	12
	.zero	48
	.align 32
	.type	.Lubsan_data78, @object
	.size	.Lubsan_data78, 32
.Lubsan_data78:
	.quad	.LC0
	.long	93
	.long	4
	.quad	.Lubsan_type0
	.byte	3
	.byte	3
	.zero	6
	.zero	32
	.align 32
	.type	.Lubsan_data79, @object
	.size	.Lubsan_data79, 16
.Lubsan_data79:
	.quad	.LC0
	.long	93
	.long	4
	.zero	48
	.align 32
	.type	.Lubsan_data80, @object
	.size	.Lubsan_data80, 32
.Lubsan_data80:
	.quad	.LC0
	.long	94
	.long	9
	.quad	.Lubsan_type0
	.byte	3
	.byte	3
	.zero	6
	.zero	32
	.align 32
	.type	.Lubsan_data81, @object
	.size	.Lubsan_data81, 16
.Lubsan_data81:
	.quad	.LC0
	.long	94
	.long	9
	.zero	48
	.align 32
	.type	.Lubsan_data82, @object
	.size	.Lubsan_data82, 32
.Lubsan_data82:
	.quad	.LC0
	.long	96
	.long	40
	.quad	.Lubsan_type0
	.byte	3
	.byte	3
	.zero	6
	.zero	32
	.align 32
	.type	.Lubsan_data83, @object
	.size	.Lubsan_data83, 16
.Lubsan_data83:
	.quad	.LC0
	.long	96
	.long	40
	.zero	48
	.align 32
	.type	.Lubsan_data84, @object
	.size	.Lubsan_data84, 32
.Lubsan_data84:
	.quad	.LC0
	.long	96
	.long	34
	.quad	.Lubsan_type0
	.byte	3
	.byte	3
	.zero	6
	.zero	32
	.align 32
	.type	.Lubsan_data85, @object
	.size	.Lubsan_data85, 16
.Lubsan_data85:
	.quad	.LC0
	.long	96
	.long	34
	.zero	48
	.align 32
	.type	.Lubsan_data86, @object
	.size	.Lubsan_data86, 32
.Lubsan_data86:
	.quad	.LC0
	.long	96
	.long	29
	.quad	.Lubsan_type0
	.byte	3
	.byte	3
	.zero	6
	.zero	32
	.align 32
	.type	.Lubsan_data87, @object
	.size	.Lubsan_data87, 16
.Lubsan_data87:
	.quad	.LC0
	.long	96
	.long	29
	.zero	48
	.align 32
	.type	.Lubsan_data88, @object
	.size	.Lubsan_data88, 32
.Lubsan_data88:
	.quad	.LC0
	.long	96
	.long	18
	.quad	.Lubsan_type0
	.byte	3
	.byte	3
	.zero	6
	.zero	32
	.align 32
	.type	.Lubsan_data89, @object
	.size	.Lubsan_data89, 16
.Lubsan_data89:
	.quad	.LC0
	.long	96
	.long	18
	.zero	48
	.align 32
	.type	.Lubsan_data90, @object
	.size	.Lubsan_data90, 32
.Lubsan_data90:
	.quad	.LC0
	.long	96
	.long	13
	.quad	.Lubsan_type0
	.byte	3
	.byte	3
	.zero	6
	.zero	32
	.align 32
	.type	.Lubsan_data91, @object
	.size	.Lubsan_data91, 16
.Lubsan_data91:
	.quad	.LC0
	.long	96
	.long	13
	.zero	48
	.align 32
	.type	.Lubsan_data92, @object
	.size	.Lubsan_data92, 32
.Lubsan_data92:
	.quad	.LC0
	.long	97
	.long	28
	.quad	.Lubsan_type0
	.byte	3
	.byte	3
	.zero	6
	.zero	32
	.align 32
	.type	.Lubsan_data93, @object
	.size	.Lubsan_data93, 16
.Lubsan_data93:
	.quad	.LC0
	.long	97
	.long	28
	.zero	48
	.align 32
	.type	.Lubsan_data94, @object
	.size	.Lubsan_data94, 32
.Lubsan_data94:
	.quad	.LC0
	.long	101
	.long	18
	.quad	.Lubsan_type0
	.byte	3
	.byte	3
	.zero	6
	.zero	32
	.align 32
	.type	.Lubsan_data95, @object
	.size	.Lubsan_data95, 16
.Lubsan_data95:
	.quad	.LC0
	.long	101
	.long	18
	.zero	48
	.align 32
	.type	.Lubsan_data96, @object
	.size	.Lubsan_data96, 16
.Lubsan_data96:
	.quad	.LC0
	.long	101
	.long	25
	.zero	48
	.align 32
	.type	.Lubsan_data97, @object
	.size	.Lubsan_data97, 32
.Lubsan_data97:
	.quad	.LC0
	.long	101
	.long	13
	.quad	.Lubsan_type0
	.byte	3
	.byte	3
	.zero	6
	.zero	32
	.align 32
	.type	.Lubsan_data98, @object
	.size	.Lubsan_data98, 16
.Lubsan_data98:
	.quad	.LC0
	.long	101
	.long	13
	.zero	48
	.text
	.globl	stack_resize
	.type	stack_resize, @function
stack_resize:
.LASANPC3:
.LFB3:
	.cfi_startproc
	pushq	%rbp
	.cfi_def_cfa_offset 16
	.cfi_offset 6, -16
	movq	%rsp, %rbp
	.cfi_def_cfa_register 6
	subq	$16, %rsp
	movq	%rdi, -8(%rbp)
	movq	%rsi, -16(%rbp)
	cmpq	$0, -8(%rbp)
	jne	.L138
	call	__asan_handle_no_return
	movl	$__PRETTY_FUNCTION__.11, %ecx
	movl	$80, %edx
	movl	$.LC0, %esi
	movl	$.LC1, %edi
	call	__assert_fail
.L138:
	cmpq	$0, -8(%rbp)
	je	.L209
	movq	-8(%rbp), %rax
	cmpq	$0, -8(%rbp)
	je	.L141
	movq	%rax, %rdx
	andl	$7, %edx
	testq	%rdx, %rdx
	je	.L142
.L141:
	movq	%rax, %rsi
	movl	$.Lubsan_data61, %edi
	call	__ubsan_handle_type_mismatch_v1_abort
.L142:
	movq	-8(%rbp), %rax
	leaq	32(%rax), %rdx
	cmpq	$-32, %rax
	jb	.L143
	movq	-8(%rbp), %rax
	movq	%rax, %rsi
	movl	$.Lubsan_data62, %edi
	call	__ubsan_handle_pointer_overflow_abort
.L143:
	movq	-8(%rbp), %rax
	addq	$32, %rax
	movq	%rax, %rdx
	shrq	$3, %rdx
	addq	$2147450880, %rdx
	movzbl	(%rdx), %edx
	testb	%dl, %dl
	je	.L144
	movq	%rax, %rdi
	call	__asan_report_load8
.L144:
	movq	-8(%rbp), %rax
	movq	32(%rax), %rax
	imulq	-16(%rbp), %rax
	movq	%rax, %rcx
	movq	-8(%rbp), %rax
	cmpq	$0, -8(%rbp)
	je	.L145
	movq	%rax, %rdx
	andl	$7, %edx
	testq	%rdx, %rdx
	je	.L146
.L145:
	movq	%rax, %rsi
	movl	$.Lubsan_data63, %edi
	call	__ubsan_handle_type_mismatch_v1_abort
.L146:
	movq	-8(%rbp), %rax
	leaq	32(%rax), %rdx
	cmpq	$-32, %rax
	jb	.L147
	movq	-8(%rbp), %rax
	movq	%rax, %rsi
	movl	$.Lubsan_data64, %edi
	call	__ubsan_handle_pointer_overflow_abort
.L147:
	movq	-8(%rbp), %rax
	movq	%rcx, 32(%rax)
	movq	-8(%rbp), %rax
	movq	%rax, %rdi
	call	stack_size_calc
	movq	%rax, %rdx
	movq	-8(%rbp), %rax
	cmpq	$0, -8(%rbp)
	je	.L148
	movq	%rax, %rcx
	andl	$7, %ecx
	testq	%rcx, %rcx
	je	.L149
.L148:
	movq	%rax, %rsi
	movl	$.Lubsan_data65, %edi
	call	__ubsan_handle_type_mismatch_v1_abort
.L149:
	movq	-8(%rbp), %rax
	leaq	40(%rax), %rcx
	cmpq	$-40, %rax
	jb	.L150
	movq	-8(%rbp), %rax
	movq	%rcx, %rdx
	movq	%rax, %rsi
	movl	$.Lubsan_data66, %edi
	call	__ubsan_handle_pointer_overflow_abort
.L150:
	movq	-8(%rbp), %rax
	addq	$40, %rax
	movq	%rax, %rcx
	shrq	$3, %rcx
	addq	$2147450880, %rcx
	movzbl	(%rcx), %ecx
	testb	%cl, %cl
	je	.L151
	movq	%rax, %rdi
	call	__asan_report_store8
.L151:
	movq	-8(%rbp), %rax
	movq	%rdx, 40(%rax)
	movq	-8(%rbp), %rax
	cmpq	$0, -8(%rbp)
	je	.L152
	movq	%rax, %rdx
	andl	$7, %edx
	testq	%rdx, %rdx
	je	.L153
.L152:
	movq	%rax, %rsi
	movl	$.Lubsan_data67, %edi
	call	__ubsan_handle_type_mismatch_v1_abort
.L153:
	movq	-8(%rbp), %rax
	leaq	8(%rax), %rdx
	cmpq	$-8, %rax
	jb	.L154
	movq	-8(%rbp), %rax
	movq	%rax, %rsi
	movl	$.Lubsan_data68, %edi
	call	__ubsan_handle_pointer_overflow_abort
.L154:
	movq	-8(%rbp), %rax
	addq	$8, %rax
	movq	%rax, %rdx
	shrq	$3, %rdx
	addq	$2147450880, %rdx
	movzbl	(%rdx), %edx
	testb	%dl, %dl
	je	.L155
	movq	%rax, %rdi
	call	__asan_report_load8
.L155:
	movq	-8(%rbp), %rax
	movq	8(%rax), %rax
	movq	%rax, %rcx
	leaq	-8(%rcx), %rdx
	cmpq	$8, %rcx
	jnb	.L156
	movq	%rax, %rsi
	movl	$.Lubsan_data69, %edi
	call	__ubsan_handle_pointer_overflow_abort
.L156:
	leaq	-8(%rax), %rcx
	movq	-8(%rbp), %rax
	cmpq	$0, -8(%rbp)
	je	.L157
	movq	%rax, %rdx
	andl	$7, %edx
	testq	%rdx, %rdx
	je	.L158
.L157:
	movq	%rax, %rsi
	movl	$.Lubsan_data70, %edi
	call	__ubsan_handle_type_mismatch_v1_abort
.L158:
	movq	-8(%rbp), %rax
	leaq	8(%rax), %rdx
	cmpq	$-8, %rax
	jb	.L159
	movq	-8(%rbp), %rax
	movq	%rax, %rsi
	movl	$.Lubsan_data71, %edi
	call	__ubsan_handle_pointer_overflow_abort
.L159:
	movq	-8(%rbp), %rax
	movq	%rcx, 8(%rax)
	movq	-8(%rbp), %rax
	cmpq	$0, -8(%rbp)
	je	.L160
	movq	%rax, %rdx
	andl	$7, %edx
	testq	%rdx, %rdx
	je	.L161
.L160:
	movq	%rax, %rsi
	movl	$.Lubsan_data72, %edi
	call	__ubsan_handle_type_mismatch_v1_abort
.L161:
	movq	-8(%rbp), %rax
	leaq	40(%rax), %rdx
	cmpq	$-40, %rax
	jb	.L162
	movq	-8(%rbp), %rax
	movq	%rax, %rsi
	movl	$.Lubsan_data73, %edi
	call	__ubsan_handle_pointer_overflow_abort
.L162:
	movq	-8(%rbp), %rax
	movq	40(%rax), %rdx
	movq	-8(%rbp), %rax
	cmpq	$0, -8(%rbp)
	je	.L163
	movq	%rax, %rcx
	andl	$7, %ecx
	testq	%rcx, %rcx
	je	.L164
.L163:
	movq	%rax, %rsi
	movl	$.Lubsan_data74, %edi
	call	__ubsan_handle_type_mismatch_v1_abort
.L164:
	movq	-8(%rbp), %rax
	leaq	8(%rax), %rcx
	cmpq	$-8, %rax
	jb	.L165
	movq	-8(%rbp), %rax
	movq	%rcx, %rdx
	movq	%rax, %rsi
	movl	$.Lubsan_data75, %edi
	call	__ubsan_handle_pointer_overflow_abort
.L165:
	movq	-8(%rbp), %rax
	movq	8(%rax), %rax
	movq	%rdx, %rsi
	movq	%rax, %rdi
	call	realloc
	movq	%rax, %rdx
	movq	-8(%rbp), %rax
	cmpq	$0, -8(%rbp)
	je	.L166
	movq	%rax, %rcx
	andl	$7, %ecx
	testq	%rcx, %rcx
	je	.L167
.L166:
	movq	%rax, %rsi
	movl	$.Lubsan_data76, %edi
	call	__ubsan_handle_type_mismatch_v1_abort
.L167:
	movq	-8(%rbp), %rax
	leaq	8(%rax), %rcx
	cmpq	$-8, %rax
	jb	.L168
	movq	-8(%rbp), %rax
	movq	%rcx, %rdx
	movq	%rax, %rsi
	movl	$.Lubsan_data77, %edi
	call	__ubsan_handle_pointer_overflow_abort
.L168:
	movq	-8(%rbp), %rax
	addq	$8, %rax
	movq	%rax, %rcx
	shrq	$3, %rcx
	addq	$2147450880, %rcx
	movzbl	(%rcx), %ecx
	testb	%cl, %cl
	je	.L169
	movq	%rax, %rdi
	call	__asan_report_store8
.L169:
	movq	-8(%rbp), %rax
	movq	%rdx, 8(%rax)
	movq	-8(%rbp), %rax
	cmpq	$0, -8(%rbp)
	je	.L170
	movq	%rax, %rdx
	andl	$7, %edx
	testq	%rdx, %rdx
	je	.L171
.L170:
	movq	%rax, %rsi
	movl	$.Lubsan_data78, %edi
	call	__ubsan_handle_type_mismatch_v1_abort
.L171:
	movq	-8(%rbp), %rax
	leaq	8(%rax), %rdx
	cmpq	$-8, %rax
	jb	.L172
	movq	-8(%rbp), %rax
	movq	%rax, %rsi
	movl	$.Lubsan_data79, %edi
	call	__ubsan_handle_pointer_overflow_abort
.L172:
	movq	-8(%rbp), %rax
	movq	8(%rax), %rax
	testq	%rax, %rax
	jne	.L173
	call	__asan_handle_no_return
	movl	$__PRETTY_FUNCTION__.11, %ecx
	movl	$93, %edx
	movl	$.LC0, %esi
	movl	$.LC2, %edi
	call	__assert_fail
.L173:
	movq	-8(%rbp), %rax
	cmpq	$0, -8(%rbp)
	je	.L174
	movq	%rax, %rdx
	andl	$7, %edx
	testq	%rdx, %rdx
	je	.L175
.L174:
	movq	%rax, %rsi
	movl	$.Lubsan_data80, %edi
	call	__ubsan_handle_type_mismatch_v1_abort
.L175:
	movq	-8(%rbp), %rax
	leaq	8(%rax), %rdx
	cmpq	$-8, %rax
	jb	.L176
	movq	-8(%rbp), %rax
	movq	%rax, %rsi
	movl	$.Lubsan_data81, %edi
	call	__ubsan_handle_pointer_overflow_abort
.L176:
	movq	-8(%rbp), %rax
	addq	$8, %rax
	movq	%rax, %rdx
	shrq	$3, %rdx
	addq	$2147450880, %rdx
	movzbl	(%rdx), %edx
	testb	%dl, %dl
	je	.L177
	movq	%rax, %rdi
	call	__asan_report_load8
.L177:
	movq	-8(%rbp), %rax
	movq	8(%rax), %rax
	testq	%rax, %rax
	jne	.L178
	movq	-8(%rbp), %rax
	cmpq	$0, -8(%rbp)
	je	.L179
	movq	%rax, %rdx
	andl	$7, %edx
	testq	%rdx, %rdx
	je	.L180
.L179:
	movq	%rax, %rsi
	movl	$.Lubsan_data82, %edi
	call	__ubsan_handle_type_mismatch_v1_abort
.L180:
	movq	-8(%rbp), %rax
	leaq	48(%rax), %rdx
	cmpq	$-48, %rax
	jb	.L181
	movq	-8(%rbp), %rax
	movq	%rax, %rsi
	movl	$.Lubsan_data83, %edi
	call	__ubsan_handle_pointer_overflow_abort
.L181:
	movq	-8(%rbp), %rax
	addq	$48, %rax
	movq	%rax, %rdx
	shrq	$3, %rdx
	addq	$2147450880, %rdx
	movzbl	(%rdx), %edx
	testb	%dl, %dl
	je	.L182
	movq	%rax, %rdi
	call	__asan_report_store8
.L182:
	movq	-8(%rbp), %rax
	movq	$0, 48(%rax)
	movq	-8(%rbp), %rax
	cmpq	$0, -8(%rbp)
	je	.L183
	movq	%rax, %rdx
	andl	$7, %edx
	testq	%rdx, %rdx
	je	.L184
.L183:
	movq	%rax, %rsi
	movl	$.Lubsan_data84, %edi
	call	__ubsan_handle_type_mismatch_v1_abort
.L184:
	movq	-8(%rbp), %rax
	leaq	48(%rax), %rdx
	cmpq	$-48, %rax
	jb	.L185
	movq	-8(%rbp), %rax
	movq	%rax, %rsi
	movl	$.Lubsan_data85, %edi
	call	__ubsan_handle_pointer_overflow_abort
.L185:
	movq	-8(%rbp), %rax
	movq	48(%rax), %rcx
	movq	-8(%rbp), %rax
	cmpq	$0, -8(%rbp)
	je	.L186
	movq	%rax, %rdx
	andl	$7, %edx
	testq	%rdx, %rdx
	je	.L187
.L186:
	movq	%rax, %rsi
	movl	$.Lubsan_data86, %edi
	call	__ubsan_handle_type_mismatch_v1_abort
.L187:
	movq	-8(%rbp), %rax
	leaq	32(%rax), %rdx
	cmpq	$-32, %rax
	jb	.L188
	movq	-8(%rbp), %rax
	movq	%rax, %rsi
	movl	$.Lubsan_data87, %edi
	call	__ubsan_handle_pointer_overflow_abort
.L188:
	movq	-8(%rbp), %rax
	addq	$32, %rax
	movq	%rax, %rdx
	shrq	$3, %rdx
	addq	$2147450880, %rdx
	movzbl	(%rdx), %edx
	testb	%dl, %dl
	je	.L189
	movq	%rax, %rdi
	call	__asan_report_store8
.L189:
	movq	-8(%rbp), %rax
	movq	%rcx, 32(%rax)
	movq	-8(%rbp), %rax
	cmpq	$0, -8(%rbp)
	je	.L190
	movq	%rax, %rdx
	andl	$7, %edx
	testq	%rdx, %rdx
	je	.L191
.L190:
	movq	%rax, %rsi
	movl	$.Lubsan_data88, %edi
	call	__ubsan_handle_type_mismatch_v1_abort
.L191:
	movq	-8(%rbp), %rax
	leaq	32(%rax), %rdx
	cmpq	$-32, %rax
	jb	.L192
	movq	-8(%rbp), %rax
	movq	%rax, %rsi
	movl	$.Lubsan_data89, %edi
	call	__ubsan_handle_pointer_overflow_abort
.L192:
	movq	-8(%rbp), %rax
	movq	32(%rax), %rcx
	movq	-8(%rbp), %rax
	cmpq	$0, -8(%rbp)
	je	.L193
	movq	%rax, %rdx
	andl	$7, %edx
	testq	%rdx, %rdx
	je	.L194
.L193:
	movq	%rax, %rsi
	movl	$.Lubsan_data90, %edi
	call	__ubsan_handle_type_mismatch_v1_abort
.L194:
	movq	-8(%rbp), %rax
	leaq	40(%rax), %rdx
	cmpq	$-40, %rax
	jb	.L195
	movq	-8(%rbp), %rax
	movq	%rax, %rsi
	movl	$.Lubsan_data91, %edi
	call	__ubsan_handle_pointer_overflow_abort
.L195:
	movq	-8(%rbp), %rax
	addq	$40, %rax
	movq	%rax, %rdx
	shrq	$3, %rdx
	addq	$2147450880, %rdx
	movzbl	(%rdx), %edx
	testb	%dl, %dl
	je	.L196
	movq	%rax, %rdi
	call	__asan_report_store8
.L196:
	movq	-8(%rbp), %rax
	movq	%rcx, 40(%rax)
	movq	-8(%rbp), %rax
	cmpq	$0, -8(%rbp)
	je	.L197
	movq	%rax, %rdx
	andl	$7, %edx
	testq	%rdx, %rdx
	je	.L198
.L197:
	movq	%rax, %rsi
	movl	$.Lubsan_data92, %edi
	call	__ubsan_handle_type_mismatch_v1_abort
.L198:
	movq	-8(%rbp), %rax
	leaq	24(%rax), %rdx
	cmpq	$-24, %rax
	jb	.L199
	movq	-8(%rbp), %rax
	movq	%rax, %rsi
	movl	$.Lubsan_data93, %edi
	call	__ubsan_handle_pointer_overflow_abort
.L199:
	movq	-8(%rbp), %rax
	addq	$24, %rax
	movq	%rax, %rdx
	movq	%rdx, %rax
	shrq	$3, %rax
	addq	$2147450880, %rax
	movzbl	(%rax), %eax
	testb	%al, %al
	setne	%cl
	cmpb	$1, %al
	setle	%al
	andl	%ecx, %eax
	testb	%al, %al
	je	.L200
	movq	%rdx, %rdi
	call	__asan_report_store2
.L200:
	movq	-8(%rbp), %rax
	movzbl	24(%rax), %edx
	orl	$8, %edx
	movb	%dl, 24(%rax)
.L178:
	movq	-8(%rbp), %rax
	cmpq	$0, -8(%rbp)
	je	.L201
	movq	%rax, %rdx
	andl	$7, %edx
	testq	%rdx, %rdx
	je	.L202
.L201:
	movq	%rax, %rsi
	movl	$.Lubsan_data94, %edi
	call	__ubsan_handle_type_mismatch_v1_abort
.L202:
	movq	-8(%rbp), %rax
	leaq	8(%rax), %rdx
	cmpq	$-8, %rax
	jb	.L203
	movq	-8(%rbp), %rax
	movq	%rax, %rsi
	movl	$.Lubsan_data95, %edi
	call	__ubsan_handle_pointer_overflow_abort
.L203:
	movq	-8(%rbp), %rax
	addq	$8, %rax
	movq	%rax, %rdx
	shrq	$3, %rdx
	addq	$2147450880, %rdx
	movzbl	(%rdx), %edx
	testb	%dl, %dl
	je	.L204
	movq	%rax, %rdi
	call	__asan_report_load8
.L204:
	movq	-8(%rbp), %rax
	movq	8(%rax), %rax
	movq	%rax, %rcx
	leaq	8(%rcx), %rdx
	cmpq	$-8, %rcx
	jb	.L205
	movq	%rax, %rsi
	movl	$.Lubsan_data96, %edi
	call	__ubsan_handle_pointer_overflow_abort
.L205:
	leaq	8(%rax), %rcx
	movq	-8(%rbp), %rax
	cmpq	$0, -8(%rbp)
	je	.L206
	movq	%rax, %rdx
	andl	$7, %edx
	testq	%rdx, %rdx
	je	.L207
.L206:
	movq	%rax, %rsi
	movl	$.Lubsan_data97, %edi
	call	__ubsan_handle_type_mismatch_v1_abort
.L207:
	movq	-8(%rbp), %rax
	leaq	8(%rax), %rdx
	cmpq	$-8, %rax
	jb	.L208
	movq	-8(%rbp), %rax
	movq	%rax, %rsi
	movl	$.Lubsan_data98, %edi
	call	__ubsan_handle_pointer_overflow_abort
.L208:
	movq	-8(%rbp), %rax
	movq	%rcx, 8(%rax)
	movq	-8(%rbp), %rax
	movabsq	$-7954798182897160910, %rdx
	movq	%rdx, %rsi
	movq	%rax, %rdi
	call	stack_set_canary_data
	movq	-8(%rbp), %rax
	movq	%rax, %rdi
	call	stack_set_hash
	jmp	.L137
.L209:
	nop
.L137:
	leave
	.cfi_def_cfa 7, 8
	ret
	.cfi_endproc
.LFE3:
	.size	stack_resize, .-stack_resize
	.data
	.align 32
	.type	.Lubsan_data99, @object
	.size	.Lubsan_data99, 32
.Lubsan_data99:
	.quad	.LC0
	.long	115
	.long	18
	.quad	.Lubsan_type0
	.byte	3
	.byte	3
	.zero	6
	.zero	32
	.align 32
	.type	.Lubsan_data100, @object
	.size	.Lubsan_data100, 16
.Lubsan_data100:
	.quad	.LC0
	.long	115
	.long	18
	.zero	48
	.align 32
	.type	.Lubsan_data101, @object
	.size	.Lubsan_data101, 32
.Lubsan_data101:
	.quad	.LC0
	.long	115
	.long	34
	.quad	.Lubsan_type0
	.byte	3
	.byte	3
	.zero	6
	.zero	32
	.align 32
	.type	.Lubsan_data102, @object
	.size	.Lubsan_data102, 16
.Lubsan_data102:
	.quad	.LC0
	.long	115
	.long	34
	.zero	48
	.text
	.globl	stack_size_calc
	.type	stack_size_calc, @function
stack_size_calc:
.LASANPC4:
.LFB4:
	.cfi_startproc
	pushq	%rbp
	.cfi_def_cfa_offset 16
	.cfi_offset 6, -16
	movq	%rsp, %rbp
	.cfi_def_cfa_register 6
	subq	$32, %rsp
	movq	%rdi, -24(%rbp)
	cmpq	$0, -24(%rbp)
	jne	.L211
	call	__asan_handle_no_return
	movl	$__PRETTY_FUNCTION__.10, %ecx
	movl	$112, %edx
	movl	$.LC0, %esi
	movl	$.LC1, %edi
	call	__assert_fail
.L211:
	cmpq	$0, -24(%rbp)
	jne	.L212
	movq	$-1, %rax
	jmp	.L213
.L212:
	movq	-24(%rbp), %rax
	cmpq	$0, -24(%rbp)
	je	.L214
	movq	%rax, %rdx
	andl	$7, %edx
	testq	%rdx, %rdx
	je	.L215
.L214:
	movq	%rax, %rsi
	movl	$.Lubsan_data99, %edi
	call	__ubsan_handle_type_mismatch_v1_abort
.L215:
	movq	-24(%rbp), %rax
	leaq	32(%rax), %rdx
	cmpq	$-32, %rax
	jb	.L216
	movq	-24(%rbp), %rax
	movq	%rax, %rsi
	movl	$.Lubsan_data100, %edi
	call	__ubsan_handle_pointer_overflow_abort
.L216:
	movq	-24(%rbp), %rax
	addq	$32, %rax
	movq	%rax, %rdx
	shrq	$3, %rdx
	addq	$2147450880, %rdx
	movzbl	(%rdx), %edx
	testb	%dl, %dl
	je	.L217
	movq	%rax, %rdi
	call	__asan_report_load8
.L217:
	movq	-24(%rbp), %rax
	movq	32(%rax), %rcx
	movq	-24(%rbp), %rax
	cmpq	$0, -24(%rbp)
	je	.L218
	movq	%rax, %rdx
	andl	$7, %edx
	testq	%rdx, %rdx
	je	.L219
.L218:
	movq	%rax, %rsi
	movl	$.Lubsan_data101, %edi
	call	__ubsan_handle_type_mismatch_v1_abort
.L219:
	movq	-24(%rbp), %rax
	leaq	16(%rax), %rdx
	cmpq	$-16, %rax
	jb	.L220
	movq	-24(%rbp), %rax
	movq	%rax, %rsi
	movl	$.Lubsan_data102, %edi
	call	__ubsan_handle_pointer_overflow_abort
.L220:
	movq	-24(%rbp), %rax
	addq	$16, %rax
	movq	%rax, %rdx
	shrq	$3, %rdx
	addq	$2147450880, %rdx
	movzbl	(%rdx), %edx
	testb	%dl, %dl
	je	.L221
	movq	%rax, %rdi
	call	__asan_report_load8
.L221:
	movq	-24(%rbp), %rax
	movq	16(%rax), %rax
	imulq	%rcx, %rax
	movq	%rax, -8(%rbp)
	addq	$16, -8(%rbp)
	movq	-8(%rbp), %rax
.L213:
	leave
	.cfi_def_cfa 7, 8
	ret
	.cfi_endproc
.LFE4:
	.size	stack_size_calc, .-stack_size_calc
	.data
	.align 32
	.type	.Lubsan_data103, @object
	.size	.Lubsan_data103, 32
.Lubsan_data103:
	.quad	.LC0
	.long	131
	.long	25
	.quad	.Lubsan_type0
	.byte	3
	.byte	3
	.zero	6
	.zero	32
	.align 32
	.type	.Lubsan_data104, @object
	.size	.Lubsan_data104, 16
.Lubsan_data104:
	.quad	.LC0
	.long	131
	.long	25
	.zero	48
	.align 32
	.type	.Lubsan_data105, @object
	.size	.Lubsan_data105, 32
.Lubsan_data105:
	.quad	.LC0
	.long	134
	.long	13
	.quad	.Lubsan_type0
	.byte	3
	.byte	3
	.zero	6
	.zero	32
	.align 32
	.type	.Lubsan_data106, @object
	.size	.Lubsan_data106, 16
.Lubsan_data106:
	.quad	.LC0
	.long	134
	.long	13
	.zero	48
	.align 32
	.type	.Lubsan_data107, @object
	.size	.Lubsan_data107, 16
.Lubsan_data107:
	.quad	.LC0
	.long	134
	.long	13
	.zero	48
	.align 32
	.type	.Lubsan_data108, @object
	.size	.Lubsan_data108, 32
.Lubsan_data108:
	.quad	.LC0
	.long	134
	.long	13
	.quad	.Lubsan_type0
	.byte	3
	.byte	3
	.zero	6
	.zero	32
	.align 32
	.type	.Lubsan_data109, @object
	.size	.Lubsan_data109, 16
.Lubsan_data109:
	.quad	.LC0
	.long	134
	.long	13
	.zero	48
	.align 32
	.type	.Lubsan_data110, @object
	.size	.Lubsan_data110, 32
.Lubsan_data110:
	.quad	.LC0
	.long	137
	.long	11
	.quad	.Lubsan_type0
	.byte	3
	.byte	3
	.zero	6
	.zero	32
	.align 32
	.type	.Lubsan_data111, @object
	.size	.Lubsan_data111, 16
.Lubsan_data111:
	.quad	.LC0
	.long	137
	.long	11
	.zero	48
	.align 32
	.type	.Lubsan_data112, @object
	.size	.Lubsan_data112, 32
.Lubsan_data112:
	.quad	.LC0
	.long	138
	.long	12
	.quad	.Lubsan_type0
	.byte	3
	.byte	3
	.zero	6
	.zero	32
	.align 32
	.type	.Lubsan_data113, @object
	.size	.Lubsan_data113, 16
.Lubsan_data113:
	.quad	.LC0
	.long	138
	.long	12
	.zero	48
	.text
	.globl	stack_dtor
	.type	stack_dtor, @function
stack_dtor:
.LASANPC5:
.LFB5:
	.cfi_startproc
	pushq	%rbp
	.cfi_def_cfa_offset 16
	.cfi_offset 6, -16
	movq	%rsp, %rbp
	.cfi_def_cfa_register 6
	subq	$16, %rsp
	movq	%rdi, -8(%rbp)
	cmpq	$0, -8(%rbp)
	jne	.L223
	call	__asan_handle_no_return
	movl	$__PRETTY_FUNCTION__.9, %ecx
	movl	$128, %edx
	movl	$.LC0, %esi
	movl	$.LC1, %edi
	call	__assert_fail
.L223:
	cmpq	$0, -8(%rbp)
	je	.L245
	movq	-8(%rbp), %rax
	cmpq	$0, -8(%rbp)
	je	.L226
	movq	%rax, %rdx
	andl	$7, %edx
	testq	%rdx, %rdx
	je	.L227
.L226:
	movq	%rax, %rsi
	movl	$.Lubsan_data103, %edi
	call	__ubsan_handle_type_mismatch_v1_abort
.L227:
	movq	-8(%rbp), %rax
	leaq	24(%rax), %rdx
	cmpq	$-24, %rax
	jb	.L228
	movq	-8(%rbp), %rax
	movq	%rax, %rsi
	movl	$.Lubsan_data104, %edi
	call	__ubsan_handle_pointer_overflow_abort
.L228:
	movq	-8(%rbp), %rax
	addq	$24, %rax
	movq	%rax, %rdx
	movq	%rdx, %rax
	shrq	$3, %rax
	addq	$2147450880, %rax
	movzbl	(%rax), %eax
	testb	%al, %al
	setne	%cl
	cmpb	$1, %al
	setle	%al
	andl	%ecx, %eax
	testb	%al, %al
	je	.L229
	movq	%rdx, %rdi
	call	__asan_report_store2
.L229:
	movq	-8(%rbp), %rax
	movzbl	24(%rax), %edx
	orl	$2, %edx
	movb	%dl, 24(%rax)
	movq	-8(%rbp), %rax
	cmpq	$0, -8(%rbp)
	je	.L230
	movq	%rax, %rdx
	andl	$7, %edx
	testq	%rdx, %rdx
	je	.L231
.L230:
	movq	%rax, %rsi
	movl	$.Lubsan_data105, %edi
	call	__ubsan_handle_type_mismatch_v1_abort
.L231:
	movq	-8(%rbp), %rax
	leaq	8(%rax), %rdx
	cmpq	$-8, %rax
	jb	.L232
	movq	-8(%rbp), %rax
	movq	%rax, %rsi
	movl	$.Lubsan_data106, %edi
	call	__ubsan_handle_pointer_overflow_abort
.L232:
	movq	-8(%rbp), %rax
	addq	$8, %rax
	movq	%rax, %rdx
	shrq	$3, %rdx
	addq	$2147450880, %rdx
	movzbl	(%rdx), %edx
	testb	%dl, %dl
	je	.L233
	movq	%rax, %rdi
	call	__asan_report_load8
.L233:
	movq	-8(%rbp), %rax
	movq	8(%rax), %rax
	movq	%rax, %rcx
	leaq	-8(%rcx), %rdx
	cmpq	$8, %rcx
	jnb	.L234
	movq	%rax, %rsi
	movl	$.Lubsan_data107, %edi
	call	__ubsan_handle_pointer_overflow_abort
.L234:
	leaq	-8(%rax), %rcx
	movq	-8(%rbp), %rax
	cmpq	$0, -8(%rbp)
	je	.L235
	movq	%rax, %rdx
	andl	$7, %edx
	testq	%rdx, %rdx
	je	.L236
.L235:
	movq	%rax, %rsi
	movl	$.Lubsan_data108, %edi
	call	__ubsan_handle_type_mismatch_v1_abort
.L236:
	movq	-8(%rbp), %rax
	leaq	8(%rax), %rdx
	cmpq	$-8, %rax
	jb	.L237
	movq	-8(%rbp), %rax
	movq	%rax, %rsi
	movl	$.Lubsan_data109, %edi
	call	__ubsan_handle_pointer_overflow_abort
.L237:
	movq	-8(%rbp), %rax
	movq	%rcx, 8(%rax)
	movq	-8(%rbp), %rax
	cmpq	$0, -8(%rbp)
	je	.L238
	movq	%rax, %rdx
	andl	$7, %edx
	testq	%rdx, %rdx
	je	.L239
.L238:
	movq	%rax, %rsi
	movl	$.Lubsan_data110, %edi
	call	__ubsan_handle_type_mismatch_v1_abort
.L239:
	movq	-8(%rbp), %rax
	leaq	8(%rax), %rdx
	cmpq	$-8, %rax
	jb	.L240
	movq	-8(%rbp), %rax
	movq	%rax, %rsi
	movl	$.Lubsan_data111, %edi
	call	__ubsan_handle_pointer_overflow_abort
.L240:
	movq	-8(%rbp), %rax
	movq	8(%rax), %rax
	movq	%rax, %rdi
	call	free
	movq	-8(%rbp), %rax
	cmpq	$0, -8(%rbp)
	je	.L241
	movq	%rax, %rdx
	andl	$7, %edx
	testq	%rdx, %rdx
	je	.L242
.L241:
	movq	%rax, %rsi
	movl	$.Lubsan_data112, %edi
	call	__ubsan_handle_type_mismatch_v1_abort
.L242:
	movq	-8(%rbp), %rax
	leaq	8(%rax), %rdx
	cmpq	$-8, %rax
	jb	.L243
	movq	-8(%rbp), %rax
	movq	%rax, %rsi
	movl	$.Lubsan_data113, %edi
	call	__ubsan_handle_pointer_overflow_abort
.L243:
	movq	-8(%rbp), %rax
	addq	$8, %rax
	movq	%rax, %rdx
	shrq	$3, %rdx
	addq	$2147450880, %rdx
	movzbl	(%rdx), %edx
	testb	%dl, %dl
	je	.L244
	movq	%rax, %rdi
	call	__asan_report_store8
.L244:
	movq	-8(%rbp), %rax
	movq	$0, 8(%rax)
	jmp	.L222
.L245:
	nop
.L222:
	leave
	.cfi_def_cfa 7, 8
	ret
	.cfi_endproc
.LFE5:
	.size	stack_dtor, .-stack_dtor
	.section	.rodata
	.align 32
.LC5:
	.string	"a+"
	.zero	61
	.align 32
.LC6:
	.string	"log.txt"
	.zero	56
	.align 32
.LC7:
	.string	"Fisting\n"
	.zero	55
	.text
	.globl	stack_check
	.type	stack_check, @function
stack_check:
.LASANPC6:
.LFB6:
	.cfi_startproc
	pushq	%rbp
	.cfi_def_cfa_offset 16
	.cfi_offset 6, -16
	movq	%rsp, %rbp
	.cfi_def_cfa_register 6
	subq	$32, %rsp
	movq	%rdi, -24(%rbp)
	cmpq	$0, -24(%rbp)
	jne	.L247
	call	__asan_handle_no_return
	movl	$__PRETTY_FUNCTION__.8, %ecx
	movl	$144, %edx
	movl	$.LC0, %esi
	movl	$.LC1, %edi
	call	__assert_fail
.L247:
	cmpq	$0, -24(%rbp)
	jne	.L248
	movl	$1, %eax
	jmp	.L249
.L248:
	movl	$.LC5, %esi
	movl	$.LC6, %edi
	call	fopen
	movq	%rax, -8(%rbp)
	cmpq	$0, -8(%rbp)
	jne	.L250
	call	__asan_handle_no_return
	movl	$.Lubsan_data1, %edi
	call	__ubsan_handle_nonnull_arg_abort
.L250:
	movq	-8(%rbp), %rax
	movq	%rax, %rcx
	movl	$8, %edx
	movl	$1, %esi
	movl	$.LC7, %edi
	call	fwrite
	movl	$0, %eax
.L249:
	leave
	.cfi_def_cfa 7, 8
	ret
	.cfi_endproc
.LFE6:
	.size	stack_check, .-stack_check
	.data
	.align 32
	.type	.Lubsan_data114, @object
	.size	.Lubsan_data114, 32
.Lubsan_data114:
	.quad	.LC0
	.long	163
	.long	19
	.quad	.Lubsan_type0
	.byte	3
	.byte	3
	.zero	6
	.zero	32
	.align 32
	.type	.Lubsan_data115, @object
	.size	.Lubsan_data115, 32
.Lubsan_data115:
	.quad	.LC0
	.long	164
	.long	20
	.quad	.Lubsan_type0
	.byte	3
	.byte	3
	.zero	6
	.zero	32
	.align 32
	.type	.Lubsan_data116, @object
	.size	.Lubsan_data116, 16
.Lubsan_data116:
	.quad	.LC0
	.long	164
	.long	20
	.zero	48
	.text
	.globl	stack_set_canary_header
	.type	stack_set_canary_header, @function
stack_set_canary_header:
.LASANPC7:
.LFB7:
	.cfi_startproc
	pushq	%rbp
	.cfi_def_cfa_offset 16
	.cfi_offset 6, -16
	movq	%rsp, %rbp
	.cfi_def_cfa_register 6
	subq	$16, %rsp
	movq	%rdi, -8(%rbp)
	movq	%rsi, -16(%rbp)
	cmpq	$0, -8(%rbp)
	jne	.L252
	call	__asan_handle_no_return
	movl	$__PRETTY_FUNCTION__.7, %ecx
	movl	$160, %edx
	movl	$.LC0, %esi
	movl	$.LC1, %edi
	call	__assert_fail
.L252:
	cmpq	$0, -8(%rbp)
	je	.L262
	movq	-8(%rbp), %rax
	cmpq	$0, -8(%rbp)
	je	.L255
	movq	%rax, %rdx
	andl	$7, %edx
	testq	%rdx, %rdx
	je	.L256
.L255:
	movq	%rax, %rsi
	movl	$.Lubsan_data114, %edi
	call	__ubsan_handle_type_mismatch_v1_abort
.L256:
	movq	-8(%rbp), %rax
	movq	%rax, %rdx
	shrq	$3, %rdx
	addq	$2147450880, %rdx
	movzbl	(%rdx), %edx
	testb	%dl, %dl
	je	.L257
	movq	%rax, %rdi
	call	__asan_report_store8
.L257:
	movq	-8(%rbp), %rax
	movq	-16(%rbp), %rdx
	movq	%rdx, (%rax)
	movq	-8(%rbp), %rax
	cmpq	$0, -8(%rbp)
	je	.L258
	movq	%rax, %rdx
	andl	$7, %edx
	testq	%rdx, %rdx
	je	.L259
.L258:
	movq	%rax, %rsi
	movl	$.Lubsan_data115, %edi
	call	__ubsan_handle_type_mismatch_v1_abort
.L259:
	movq	-8(%rbp), %rax
	leaq	64(%rax), %rdx
	cmpq	$-64, %rax
	jb	.L260
	movq	-8(%rbp), %rax
	movq	%rax, %rsi
	movl	$.Lubsan_data116, %edi
	call	__ubsan_handle_pointer_overflow_abort
.L260:
	movq	-8(%rbp), %rax
	addq	$64, %rax
	movq	%rax, %rdx
	shrq	$3, %rdx
	addq	$2147450880, %rdx
	movzbl	(%rdx), %edx
	testb	%dl, %dl
	je	.L261
	movq	%rax, %rdi
	call	__asan_report_store8
.L261:
	movq	-8(%rbp), %rax
	movq	-16(%rbp), %rdx
	movq	%rdx, 64(%rax)
	jmp	.L251
.L262:
	nop
.L251:
	leave
	.cfi_def_cfa 7, 8
	ret
	.cfi_endproc
.LFE7:
	.size	stack_set_canary_header, .-stack_set_canary_header
	.data
	.align 32
	.type	.Lubsan_data117, @object
	.size	.Lubsan_data117, 32
.Lubsan_data117:
	.quad	.LC0
	.long	171
	.long	5
	.quad	.Lubsan_type0
	.byte	3
	.byte	3
	.zero	6
	.zero	32
	.align 32
	.type	.Lubsan_data118, @object
	.size	.Lubsan_data118, 16
.Lubsan_data118:
	.quad	.LC0
	.long	171
	.long	5
	.zero	48
	.align 32
	.type	.Lubsan_data119, @object
	.size	.Lubsan_data119, 32
.Lubsan_data119:
	.quad	.LC0
	.long	171
	.long	11
	.quad	.Lubsan_type0
	.byte	3
	.byte	3
	.zero	6
	.zero	32
	.align 32
	.type	.Lubsan_data120, @object
	.size	.Lubsan_data120, 16
.Lubsan_data120:
	.quad	.LC0
	.long	171
	.long	11
	.zero	48
	.align 32
	.type	.Lubsan_data121, @object
	.size	.Lubsan_data121, 32
.Lubsan_data121:
	.quad	.LC0
	.long	174
	.long	19
	.quad	.Lubsan_type0
	.byte	3
	.byte	3
	.zero	6
	.zero	32
	.align 32
	.type	.Lubsan_data122, @object
	.size	.Lubsan_data122, 16
.Lubsan_data122:
	.quad	.LC0
	.long	174
	.long	19
	.zero	48
	.align 32
	.type	.Lubsan_data123, @object
	.size	.Lubsan_data123, 16
.Lubsan_data123:
	.quad	.LC0
	.long	174
	.long	26
	.zero	48
	.align 32
	.type	.Lubsan_type1, @object
	.size	.Lubsan_type1, 13
.Lubsan_type1:
	.value	-1
	.value	0
	.string	"'canary'"
	.zero	51
	.align 32
	.type	.Lubsan_data124, @object
	.size	.Lubsan_data124, 32
.Lubsan_data124:
	.quad	.LC0
	.long	174
	.long	46
	.quad	.Lubsan_type1
	.byte	3
	.byte	1
	.zero	6
	.zero	32
	.align 32
	.type	.Lubsan_data125, @object
	.size	.Lubsan_data125, 32
.Lubsan_data125:
	.quad	.LC0
	.long	175
	.long	19
	.quad	.Lubsan_type0
	.byte	3
	.byte	3
	.zero	6
	.zero	32
	.align 32
	.type	.Lubsan_data126, @object
	.size	.Lubsan_data126, 16
.Lubsan_data126:
	.quad	.LC0
	.long	175
	.long	19
	.zero	48
	.align 32
	.type	.Lubsan_data127, @object
	.size	.Lubsan_data127, 32
.Lubsan_data127:
	.quad	.LC0
	.long	175
	.long	31
	.quad	.Lubsan_type0
	.byte	3
	.byte	3
	.zero	6
	.zero	32
	.align 32
	.type	.Lubsan_data128, @object
	.size	.Lubsan_data128, 16
.Lubsan_data128:
	.quad	.LC0
	.long	175
	.long	31
	.zero	48
	.align 32
	.type	.Lubsan_data129, @object
	.size	.Lubsan_data129, 32
.Lubsan_data129:
	.quad	.LC0
	.long	175
	.long	46
	.quad	.Lubsan_type0
	.byte	3
	.byte	3
	.zero	6
	.zero	32
	.align 32
	.type	.Lubsan_data130, @object
	.size	.Lubsan_data130, 16
.Lubsan_data130:
	.quad	.LC0
	.long	175
	.long	46
	.zero	48
	.align 32
	.type	.Lubsan_data131, @object
	.size	.Lubsan_data131, 16
.Lubsan_data131:
	.quad	.LC0
	.long	175
	.long	26
	.zero	48
	.align 32
	.type	.Lubsan_data132, @object
	.size	.Lubsan_data132, 32
.Lubsan_data132:
	.quad	.LC0
	.long	175
	.long	59
	.quad	.Lubsan_type1
	.byte	3
	.byte	1
	.zero	6
	.zero	32
	.section	.rodata
	.align 32
.LC8:
	.string	"(stk->data) != NULL"
	.zero	44
	.text
	.globl	stack_set_canary_data
	.type	stack_set_canary_data, @function
stack_set_canary_data:
.LASANPC8:
.LFB8:
	.cfi_startproc
	pushq	%rbp
	.cfi_def_cfa_offset 16
	.cfi_offset 6, -16
	movq	%rsp, %rbp
	.cfi_def_cfa_register 6
	subq	$16, %rsp
	movq	%rdi, -8(%rbp)
	movq	%rsi, -16(%rbp)
	cmpq	$0, -8(%rbp)
	jne	.L264
	call	__asan_handle_no_return
	movl	$__PRETTY_FUNCTION__.6, %ecx
	movl	$170, %edx
	movl	$.LC0, %esi
	movl	$.LC1, %edi
	call	__assert_fail
.L264:
	cmpq	$0, -8(%rbp)
	je	.L302
	movq	-8(%rbp), %rax
	cmpq	$0, -8(%rbp)
	je	.L267
	movq	%rax, %rdx
	andl	$7, %edx
	testq	%rdx, %rdx
	je	.L268
.L267:
	movq	%rax, %rsi
	movl	$.Lubsan_data117, %edi
	call	__ubsan_handle_type_mismatch_v1_abort
.L268:
	movq	-8(%rbp), %rax
	leaq	8(%rax), %rdx
	cmpq	$-8, %rax
	jb	.L269
	movq	-8(%rbp), %rax
	movq	%rax, %rsi
	movl	$.Lubsan_data118, %edi
	call	__ubsan_handle_pointer_overflow_abort
.L269:
	movq	-8(%rbp), %rax
	addq	$8, %rax
	movq	%rax, %rdx
	shrq	$3, %rdx
	addq	$2147450880, %rdx
	movzbl	(%rdx), %edx
	testb	%dl, %dl
	je	.L270
	movq	%rax, %rdi
	call	__asan_report_load8
.L270:
	movq	-8(%rbp), %rax
	movq	8(%rax), %rax
	testq	%rax, %rax
	jne	.L271
	call	__asan_handle_no_return
	movl	$__PRETTY_FUNCTION__.6, %ecx
	movl	$171, %edx
	movl	$.LC0, %esi
	movl	$.LC8, %edi
	call	__assert_fail
.L271:
	movq	-8(%rbp), %rax
	cmpq	$0, -8(%rbp)
	je	.L272
	movq	%rax, %rdx
	andl	$7, %edx
	testq	%rdx, %rdx
	je	.L273
.L272:
	movq	%rax, %rsi
	movl	$.Lubsan_data119, %edi
	call	__ubsan_handle_type_mismatch_v1_abort
.L273:
	movq	-8(%rbp), %rax
	leaq	8(%rax), %rdx
	cmpq	$-8, %rax
	jb	.L274
	movq	-8(%rbp), %rax
	movq	%rax, %rsi
	movl	$.Lubsan_data120, %edi
	call	__ubsan_handle_pointer_overflow_abort
.L274:
	movq	-8(%rbp), %rax
	addq	$8, %rax
	movq	%rax, %rdx
	shrq	$3, %rdx
	addq	$2147450880, %rdx
	movzbl	(%rdx), %edx
	testb	%dl, %dl
	je	.L275
	movq	%rax, %rdi
	call	__asan_report_load8
.L275:
	movq	-8(%rbp), %rax
	movq	8(%rax), %rax
	testq	%rax, %rax
	je	.L303
	movq	-8(%rbp), %rax
	cmpq	$0, -8(%rbp)
	je	.L277
	movq	%rax, %rdx
	andl	$7, %edx
	testq	%rdx, %rdx
	je	.L278
.L277:
	movq	%rax, %rsi
	movl	$.Lubsan_data121, %edi
	call	__ubsan_handle_type_mismatch_v1_abort
.L278:
	movq	-8(%rbp), %rax
	leaq	8(%rax), %rdx
	cmpq	$-8, %rax
	jb	.L279
	movq	-8(%rbp), %rax
	movq	%rax, %rsi
	movl	$.Lubsan_data122, %edi
	call	__ubsan_handle_pointer_overflow_abort
.L279:
	movq	-8(%rbp), %rax
	addq	$8, %rax
	movq	%rax, %rdx
	shrq	$3, %rdx
	addq	$2147450880, %rdx
	movzbl	(%rdx), %edx
	testb	%dl, %dl
	je	.L280
	movq	%rax, %rdi
	call	__asan_report_load8
.L280:
	movq	-8(%rbp), %rax
	movq	8(%rax), %rax
	movq	%rax, %rcx
	leaq	-8(%rcx), %rdx
	cmpq	$8, %rcx
	jnb	.L281
	movq	%rax, %rsi
	movl	$.Lubsan_data123, %edi
	call	__ubsan_handle_pointer_overflow_abort
.L281:
	subq	$8, %rax
	movq	%rax, %rdx
	testq	%rax, %rax
	je	.L282
	movq	%rdx, %rcx
	andl	$7, %ecx
	testq	%rcx, %rcx
	je	.L283
.L282:
	movq	%rdx, %rsi
	movl	$.Lubsan_data124, %edi
	call	__ubsan_handle_type_mismatch_v1_abort
.L283:
	movq	%rax, %rdx
	movq	%rdx, %rcx
	shrq	$3, %rcx
	addq	$2147450880, %rcx
	movzbl	(%rcx), %ecx
	testb	%cl, %cl
	je	.L284
	movq	%rdx, %rdi
	call	__asan_report_store8
.L284:
	movq	-16(%rbp), %rdx
	movq	%rdx, (%rax)
	movq	-8(%rbp), %rax
	cmpq	$0, -8(%rbp)
	je	.L285
	movq	%rax, %rdx
	andl	$7, %edx
	testq	%rdx, %rdx
	je	.L286
.L285:
	movq	%rax, %rsi
	movl	$.Lubsan_data125, %edi
	call	__ubsan_handle_type_mismatch_v1_abort
.L286:
	movq	-8(%rbp), %rax
	leaq	8(%rax), %rdx
	cmpq	$-8, %rax
	jb	.L287
	movq	-8(%rbp), %rax
	movq	%rax, %rsi
	movl	$.Lubsan_data126, %edi
	call	__ubsan_handle_pointer_overflow_abort
.L287:
	movq	-8(%rbp), %rax
	movq	8(%rax), %rcx
	movq	-8(%rbp), %rax
	cmpq	$0, -8(%rbp)
	je	.L288
	movq	%rax, %rdx
	andl	$7, %edx
	testq	%rdx, %rdx
	je	.L289
.L288:
	movq	%rax, %rsi
	movl	$.Lubsan_data127, %edi
	call	__ubsan_handle_type_mismatch_v1_abort
.L289:
	movq	-8(%rbp), %rax
	leaq	16(%rax), %rdx
	cmpq	$-16, %rax
	jb	.L290
	movq	-8(%rbp), %rax
	movq	%rax, %rsi
	movl	$.Lubsan_data128, %edi
	call	__ubsan_handle_pointer_overflow_abort
.L290:
	movq	-8(%rbp), %rax
	addq	$16, %rax
	movq	%rax, %rdx
	shrq	$3, %rdx
	addq	$2147450880, %rdx
	movzbl	(%rdx), %edx
	testb	%dl, %dl
	je	.L291
	movq	%rax, %rdi
	call	__asan_report_load8
.L291:
	movq	-8(%rbp), %rax
	movq	16(%rax), %rsi
	movq	-8(%rbp), %rax
	cmpq	$0, -8(%rbp)
	je	.L292
	movq	%rax, %rdx
	andl	$7, %edx
	testq	%rdx, %rdx
	je	.L293
.L292:
	movq	%rax, %rsi
	movl	$.Lubsan_data129, %edi
	call	__ubsan_handle_type_mismatch_v1_abort
.L293:
	movq	-8(%rbp), %rax
	leaq	32(%rax), %rdx
	cmpq	$-32, %rax
	jb	.L294
	movq	-8(%rbp), %rax
	movq	%rax, %rsi
	movl	$.Lubsan_data130, %edi
	call	__ubsan_handle_pointer_overflow_abort
.L294:
	movq	-8(%rbp), %rax
	addq	$32, %rax
	movq	%rax, %rdx
	shrq	$3, %rdx
	addq	$2147450880, %rdx
	movzbl	(%rdx), %edx
	testb	%dl, %dl
	je	.L295
	movq	%rax, %rdi
	call	__asan_report_load8
.L295:
	movq	-8(%rbp), %rax
	movq	32(%rax), %rax
	imulq	%rax, %rsi
	movq	%rsi, %rdx
	movq	%rcx, %rsi
	leaq	(%rsi,%rdx), %rax
	movq	%rdx, %rdi
	notq	%rdi
	shrq	$63, %rdi
	testb	%dil, %dil
	je	.L296
	cmpq	%rsi, %rax
	jnb	.L297
.L298:
	movq	%rax, %rdx
	movq	%rcx, %rsi
	movl	$.Lubsan_data131, %edi
	call	__ubsan_handle_pointer_overflow_abort
.L296:
	cmpq	%rsi, %rax
	ja	.L298
.L297:
	leaq	(%rcx,%rdx), %rax
	movq	%rax, %rdx
	testq	%rax, %rax
	je	.L299
	movq	%rdx, %rcx
	andl	$7, %ecx
	testq	%rcx, %rcx
	je	.L300
.L299:
	movq	%rdx, %rsi
	movl	$.Lubsan_data132, %edi
	call	__ubsan_handle_type_mismatch_v1_abort
.L300:
	movq	%rax, %rdx
	movq	%rdx, %rcx
	shrq	$3, %rcx
	addq	$2147450880, %rcx
	movzbl	(%rcx), %ecx
	testb	%cl, %cl
	je	.L301
	movq	%rdx, %rdi
	call	__asan_report_store8
.L301:
	movq	-16(%rbp), %rdx
	movq	%rdx, (%rax)
	jmp	.L263
.L302:
	nop
	jmp	.L263
.L303:
	nop
.L263:
	leave
	.cfi_def_cfa 7, 8
	ret
	.cfi_endproc
.LFE8:
	.size	stack_set_canary_data, .-stack_set_canary_data
	.data
	.align 32
	.type	.Lubsan_data133, @object
	.size	.Lubsan_data133, 32
.Lubsan_data133:
	.quad	.LC0
	.long	184
	.long	24
	.quad	.Lubsan_type0
	.byte	3
	.byte	3
	.zero	6
	.zero	32
	.align 32
	.type	.Lubsan_data134, @object
	.size	.Lubsan_data134, 32
.Lubsan_data134:
	.quad	.LC0
	.long	185
	.long	25
	.quad	.Lubsan_type0
	.byte	3
	.byte	3
	.zero	6
	.zero	32
	.align 32
	.type	.Lubsan_data135, @object
	.size	.Lubsan_data135, 16
.Lubsan_data135:
	.quad	.LC0
	.long	185
	.long	25
	.zero	48
	.align 32
	.type	.Lubsan_data136, @object
	.size	.Lubsan_data136, 32
.Lubsan_data136:
	.quad	.LC0
	.long	190
	.long	35
	.quad	.Lubsan_type0
	.byte	3
	.byte	3
	.zero	6
	.zero	32
	.align 32
	.type	.Lubsan_data137, @object
	.size	.Lubsan_data137, 16
.Lubsan_data137:
	.quad	.LC0
	.long	190
	.long	35
	.zero	48
	.align 32
	.type	.Lubsan_data138, @object
	.size	.Lubsan_data138, 32
.Lubsan_data138:
	.quad	.LC0
	.long	194
	.long	35
	.quad	.Lubsan_type0
	.byte	3
	.byte	3
	.zero	6
	.zero	32
	.align 32
	.type	.Lubsan_data139, @object
	.size	.Lubsan_data139, 16
.Lubsan_data139:
	.quad	.LC0
	.long	194
	.long	35
	.zero	48
	.align 32
	.type	.Lubsan_data140, @object
	.size	.Lubsan_data140, 32
.Lubsan_data140:
	.quad	.LC0
	.long	199
	.long	34
	.quad	.Lubsan_type0
	.byte	3
	.byte	3
	.zero	6
	.zero	32
	.align 32
	.type	.Lubsan_data141, @object
	.size	.Lubsan_data141, 16
.Lubsan_data141:
	.quad	.LC0
	.long	199
	.long	34
	.zero	48
	.align 32
	.type	.Lubsan_data142, @object
	.size	.Lubsan_data142, 32
.Lubsan_data142:
	.quad	.LC0
	.long	203
	.long	34
	.quad	.Lubsan_type0
	.byte	3
	.byte	3
	.zero	6
	.zero	32
	.align 32
	.type	.Lubsan_data143, @object
	.size	.Lubsan_data143, 16
.Lubsan_data143:
	.quad	.LC0
	.long	203
	.long	34
	.zero	48
	.text
	.globl	stack_check_canary_header
	.type	stack_check_canary_header, @function
stack_check_canary_header:
.LASANPC9:
.LFB9:
	.cfi_startproc
	pushq	%rbp
	.cfi_def_cfa_offset 16
	.cfi_offset 6, -16
	movq	%rsp, %rbp
	.cfi_def_cfa_register 6
	subq	$32, %rsp
	movq	%rdi, -24(%rbp)
	cmpq	$0, -24(%rbp)
	jne	.L305
	call	__asan_handle_no_return
	movl	$__PRETTY_FUNCTION__.5, %ecx
	movl	$181, %edx
	movl	$.LC0, %esi
	movl	$.LC1, %edi
	call	__assert_fail
.L305:
	cmpq	$0, -24(%rbp)
	je	.L334
	movq	-24(%rbp), %rax
	cmpq	$0, -24(%rbp)
	je	.L308
	movq	%rax, %rdx
	andl	$7, %edx
	testq	%rdx, %rdx
	je	.L309
.L308:
	movq	%rax, %rsi
	movl	$.Lubsan_data133, %edi
	call	__ubsan_handle_type_mismatch_v1_abort
.L309:
	movq	-24(%rbp), %rax
	movq	%rax, %rdx
	shrq	$3, %rdx
	addq	$2147450880, %rdx
	movzbl	(%rdx), %edx
	testb	%dl, %dl
	je	.L310
	movq	%rax, %rdi
	call	__asan_report_load8
.L310:
	movq	-24(%rbp), %rax
	movq	(%rax), %rax
	movabsq	$-7954798182897160910, %rdx
	cmpq	%rdx, %rax
	sete	%al
	movzbl	%al, %eax
	movl	%eax, -8(%rbp)
	movq	-24(%rbp), %rax
	cmpq	$0, -24(%rbp)
	je	.L311
	movq	%rax, %rdx
	andl	$7, %edx
	testq	%rdx, %rdx
	je	.L312
.L311:
	movq	%rax, %rsi
	movl	$.Lubsan_data134, %edi
	call	__ubsan_handle_type_mismatch_v1_abort
.L312:
	movq	-24(%rbp), %rax
	leaq	64(%rax), %rdx
	cmpq	$-64, %rax
	jb	.L313
	movq	-24(%rbp), %rax
	movq	%rax, %rsi
	movl	$.Lubsan_data135, %edi
	call	__ubsan_handle_pointer_overflow_abort
.L313:
	movq	-24(%rbp), %rax
	addq	$64, %rax
	movq	%rax, %rdx
	shrq	$3, %rdx
	addq	$2147450880, %rdx
	movzbl	(%rdx), %edx
	testb	%dl, %dl
	je	.L314
	movq	%rax, %rdi
	call	__asan_report_load8
.L314:
	movq	-24(%rbp), %rax
	movq	64(%rax), %rax
	movabsq	$-7954798182897160910, %rdx
	cmpq	%rdx, %rax
	sete	%al
	movzbl	%al, %eax
	movl	%eax, -4(%rbp)
	cmpl	$0, -4(%rbp)
	je	.L315
	movq	-24(%rbp), %rax
	cmpq	$0, -24(%rbp)
	je	.L316
	movq	%rax, %rdx
	andl	$7, %edx
	testq	%rdx, %rdx
	je	.L317
.L316:
	movq	%rax, %rsi
	movl	$.Lubsan_data136, %edi
	call	__ubsan_handle_type_mismatch_v1_abort
.L317:
	movq	-24(%rbp), %rax
	leaq	24(%rax), %rdx
	cmpq	$-24, %rax
	jb	.L318
	movq	-24(%rbp), %rax
	movq	%rax, %rsi
	movl	$.Lubsan_data137, %edi
	call	__ubsan_handle_pointer_overflow_abort
.L318:
	movq	-24(%rbp), %rax
	addq	$24, %rax
	movq	%rax, %rdx
	movq	%rdx, %rax
	shrq	$3, %rax
	addq	$2147450880, %rax
	movzbl	(%rax), %eax
	testb	%al, %al
	setne	%cl
	cmpb	$1, %al
	setle	%al
	andl	%ecx, %eax
	testb	%al, %al
	je	.L319
	movq	%rdx, %rdi
	call	__asan_report_store2
.L319:
	movq	-24(%rbp), %rax
	movzbl	24(%rax), %edx
	andl	$-65, %edx
	movb	%dl, 24(%rax)
	jmp	.L320
.L315:
	movq	-24(%rbp), %rax
	cmpq	$0, -24(%rbp)
	je	.L321
	movq	%rax, %rdx
	andl	$7, %edx
	testq	%rdx, %rdx
	je	.L322
.L321:
	movq	%rax, %rsi
	movl	$.Lubsan_data138, %edi
	call	__ubsan_handle_type_mismatch_v1_abort
.L322:
	movq	-24(%rbp), %rax
	leaq	24(%rax), %rdx
	cmpq	$-24, %rax
	jb	.L323
	movq	-24(%rbp), %rax
	movq	%rax, %rsi
	movl	$.Lubsan_data139, %edi
	call	__ubsan_handle_pointer_overflow_abort
.L323:
	movq	-24(%rbp), %rax
	addq	$24, %rax
	movq	%rax, %rdx
	movq	%rdx, %rax
	shrq	$3, %rax
	addq	$2147450880, %rax
	movzbl	(%rax), %eax
	testb	%al, %al
	setne	%cl
	cmpb	$1, %al
	setle	%al
	andl	%ecx, %eax
	testb	%al, %al
	je	.L324
	movq	%rdx, %rdi
	call	__asan_report_store2
.L324:
	movq	-24(%rbp), %rax
	movzbl	24(%rax), %edx
	andl	$-65, %edx
	movb	%dl, 24(%rax)
.L320:
	cmpl	$0, -8(%rbp)
	je	.L325
	movq	-24(%rbp), %rax
	cmpq	$0, -24(%rbp)
	je	.L326
	movq	%rax, %rdx
	andl	$7, %edx
	testq	%rdx, %rdx
	je	.L327
.L326:
	movq	%rax, %rsi
	movl	$.Lubsan_data140, %edi
	call	__ubsan_handle_type_mismatch_v1_abort
.L327:
	movq	-24(%rbp), %rax
	leaq	24(%rax), %rdx
	cmpq	$-24, %rax
	jb	.L328
	movq	-24(%rbp), %rax
	movq	%rax, %rsi
	movl	$.Lubsan_data141, %edi
	call	__ubsan_handle_pointer_overflow_abort
.L328:
	movq	-24(%rbp), %rax
	addq	$24, %rax
	movq	%rax, %rdx
	movq	%rdx, %rax
	shrq	$3, %rax
	addq	$2147450880, %rax
	movzbl	(%rax), %eax
	testb	%al, %al
	setne	%cl
	cmpb	$1, %al
	setle	%al
	andl	%ecx, %eax
	testb	%al, %al
	je	.L329
	movq	%rdx, %rdi
	call	__asan_report_store2
.L329:
	movq	-24(%rbp), %rax
	movzbl	24(%rax), %edx
	andl	$-33, %edx
	movb	%dl, 24(%rax)
	jmp	.L304
.L325:
	movq	-24(%rbp), %rax
	cmpq	$0, -24(%rbp)
	je	.L330
	movq	%rax, %rdx
	andl	$7, %edx
	testq	%rdx, %rdx
	je	.L331
.L330:
	movq	%rax, %rsi
	movl	$.Lubsan_data142, %edi
	call	__ubsan_handle_type_mismatch_v1_abort
.L331:
	movq	-24(%rbp), %rax
	leaq	24(%rax), %rdx
	cmpq	$-24, %rax
	jb	.L332
	movq	-24(%rbp), %rax
	movq	%rax, %rsi
	movl	$.Lubsan_data143, %edi
	call	__ubsan_handle_pointer_overflow_abort
.L332:
	movq	-24(%rbp), %rax
	addq	$24, %rax
	movq	%rax, %rdx
	movq	%rdx, %rax
	shrq	$3, %rax
	addq	$2147450880, %rax
	movzbl	(%rax), %eax
	testb	%al, %al
	setne	%cl
	cmpb	$1, %al
	setle	%al
	andl	%ecx, %eax
	testb	%al, %al
	je	.L333
	movq	%rdx, %rdi
	call	__asan_report_store2
.L333:
	movq	-24(%rbp), %rax
	movzbl	24(%rax), %edx
	andl	$-33, %edx
	movb	%dl, 24(%rax)
	jmp	.L304
.L334:
	nop
.L304:
	leave
	.cfi_def_cfa 7, 8
	ret
	.cfi_endproc
.LFE9:
	.size	stack_check_canary_header, .-stack_check_canary_header
	.data
	.align 32
	.type	.Lubsan_data144, @object
	.size	.Lubsan_data144, 32
.Lubsan_data144:
	.quad	.LC0
	.long	213
	.long	37
	.quad	.Lubsan_type0
	.byte	3
	.byte	3
	.zero	6
	.zero	32
	.align 32
	.type	.Lubsan_data145, @object
	.size	.Lubsan_data145, 16
.Lubsan_data145:
	.quad	.LC0
	.long	213
	.long	37
	.zero	48
	.align 32
	.type	.Lubsan_data146, @object
	.size	.Lubsan_data146, 16
.Lubsan_data146:
	.quad	.LC0
	.long	213
	.long	44
	.zero	48
	.align 32
	.type	.Lubsan_data147, @object
	.size	.Lubsan_data147, 32
.Lubsan_data147:
	.quad	.LC0
	.long	213
	.long	20
	.quad	.Lubsan_type1
	.byte	3
	.byte	0
	.zero	6
	.zero	32
	.align 32
	.type	.Lubsan_data148, @object
	.size	.Lubsan_data148, 32
.Lubsan_data148:
	.quad	.LC0
	.long	215
	.long	38
	.quad	.Lubsan_type0
	.byte	3
	.byte	3
	.zero	6
	.zero	32
	.align 32
	.type	.Lubsan_data149, @object
	.size	.Lubsan_data149, 16
.Lubsan_data149:
	.quad	.LC0
	.long	215
	.long	38
	.zero	48
	.align 32
	.type	.Lubsan_data150, @object
	.size	.Lubsan_data150, 32
.Lubsan_data150:
	.quad	.LC0
	.long	215
	.long	50
	.quad	.Lubsan_type0
	.byte	3
	.byte	3
	.zero	6
	.zero	32
	.align 32
	.type	.Lubsan_data151, @object
	.size	.Lubsan_data151, 16
.Lubsan_data151:
	.quad	.LC0
	.long	215
	.long	50
	.zero	48
	.align 32
	.type	.Lubsan_data152, @object
	.size	.Lubsan_data152, 32
.Lubsan_data152:
	.quad	.LC0
	.long	215
	.long	65
	.quad	.Lubsan_type0
	.byte	3
	.byte	3
	.zero	6
	.zero	32
	.align 32
	.type	.Lubsan_data153, @object
	.size	.Lubsan_data153, 16
.Lubsan_data153:
	.quad	.LC0
	.long	215
	.long	65
	.zero	48
	.align 32
	.type	.Lubsan_data154, @object
	.size	.Lubsan_data154, 16
.Lubsan_data154:
	.quad	.LC0
	.long	215
	.long	45
	.zero	48
	.align 32
	.type	.Lubsan_data155, @object
	.size	.Lubsan_data155, 32
.Lubsan_data155:
	.quad	.LC0
	.long	215
	.long	21
	.quad	.Lubsan_type1
	.byte	3
	.byte	0
	.zero	6
	.zero	32
	.align 32
	.type	.Lubsan_data156, @object
	.size	.Lubsan_data156, 32
.Lubsan_data156:
	.quad	.LC0
	.long	220
	.long	33
	.quad	.Lubsan_type0
	.byte	3
	.byte	3
	.zero	6
	.zero	32
	.align 32
	.type	.Lubsan_data157, @object
	.size	.Lubsan_data157, 16
.Lubsan_data157:
	.quad	.LC0
	.long	220
	.long	33
	.zero	48
	.align 32
	.type	.Lubsan_data158, @object
	.size	.Lubsan_data158, 32
.Lubsan_data158:
	.quad	.LC0
	.long	224
	.long	33
	.quad	.Lubsan_type0
	.byte	3
	.byte	3
	.zero	6
	.zero	32
	.align 32
	.type	.Lubsan_data159, @object
	.size	.Lubsan_data159, 16
.Lubsan_data159:
	.quad	.LC0
	.long	224
	.long	33
	.zero	48
	.align 32
	.type	.Lubsan_data160, @object
	.size	.Lubsan_data160, 32
.Lubsan_data160:
	.quad	.LC0
	.long	229
	.long	32
	.quad	.Lubsan_type0
	.byte	3
	.byte	3
	.zero	6
	.zero	32
	.align 32
	.type	.Lubsan_data161, @object
	.size	.Lubsan_data161, 16
.Lubsan_data161:
	.quad	.LC0
	.long	229
	.long	32
	.zero	48
	.align 32
	.type	.Lubsan_data162, @object
	.size	.Lubsan_data162, 32
.Lubsan_data162:
	.quad	.LC0
	.long	233
	.long	32
	.quad	.Lubsan_type0
	.byte	3
	.byte	3
	.zero	6
	.zero	32
	.align 32
	.type	.Lubsan_data163, @object
	.size	.Lubsan_data163, 16
.Lubsan_data163:
	.quad	.LC0
	.long	233
	.long	32
	.zero	48
	.text
	.globl	stack_check_canary_data
	.type	stack_check_canary_data, @function
stack_check_canary_data:
.LASANPC10:
.LFB10:
	.cfi_startproc
	pushq	%rbp
	.cfi_def_cfa_offset 16
	.cfi_offset 6, -16
	movq	%rsp, %rbp
	.cfi_def_cfa_register 6
	subq	$32, %rsp
	movq	%rdi, -24(%rbp)
	cmpq	$0, -24(%rbp)
	jne	.L336
	call	__asan_handle_no_return
	movl	$__PRETTY_FUNCTION__.4, %ecx
	movl	$210, %edx
	movl	$.LC0, %esi
	movl	$.LC1, %edi
	call	__assert_fail
.L336:
	cmpq	$0, -24(%rbp)
	je	.L383
	movq	-24(%rbp), %rax
	cmpq	$0, -24(%rbp)
	je	.L339
	movq	%rax, %rdx
	andl	$7, %edx
	testq	%rdx, %rdx
	je	.L340
.L339:
	movq	%rax, %rsi
	movl	$.Lubsan_data144, %edi
	call	__ubsan_handle_type_mismatch_v1_abort
.L340:
	movq	-24(%rbp), %rax
	leaq	8(%rax), %rdx
	cmpq	$-8, %rax
	jb	.L341
	movq	-24(%rbp), %rax
	movq	%rax, %rsi
	movl	$.Lubsan_data145, %edi
	call	__ubsan_handle_pointer_overflow_abort
.L341:
	movq	-24(%rbp), %rax
	addq	$8, %rax
	movq	%rax, %rdx
	shrq	$3, %rdx
	addq	$2147450880, %rdx
	movzbl	(%rdx), %edx
	testb	%dl, %dl
	je	.L342
	movq	%rax, %rdi
	call	__asan_report_load8
.L342:
	movq	-24(%rbp), %rax
	movq	8(%rax), %rax
	movq	%rax, %rcx
	leaq	-8(%rcx), %rdx
	cmpq	$8, %rcx
	jnb	.L343
	movq	%rax, %rsi
	movl	$.Lubsan_data146, %edi
	call	__ubsan_handle_pointer_overflow_abort
.L343:
	subq	$8, %rax
	movq	%rax, %rdx
	testq	%rax, %rax
	je	.L344
	movq	%rdx, %rcx
	andl	$7, %ecx
	testq	%rcx, %rcx
	je	.L345
.L344:
	movq	%rdx, %rsi
	movl	$.Lubsan_data147, %edi
	call	__ubsan_handle_type_mismatch_v1_abort
.L345:
	movq	%rax, %rdx
	movq	%rdx, %rcx
	shrq	$3, %rcx
	addq	$2147450880, %rcx
	movzbl	(%rcx), %ecx
	testb	%cl, %cl
	je	.L346
	movq	%rdx, %rdi
	call	__asan_report_load8
.L346:
	movq	(%rax), %rax
	movabsq	$-7954798182897160910, %rdx
	cmpq	%rdx, %rax
	sete	%al
	movzbl	%al, %eax
	movl	%eax, -8(%rbp)
	movq	-24(%rbp), %rax
	cmpq	$0, -24(%rbp)
	je	.L347
	movq	%rax, %rdx
	andl	$7, %edx
	testq	%rdx, %rdx
	je	.L348
.L347:
	movq	%rax, %rsi
	movl	$.Lubsan_data148, %edi
	call	__ubsan_handle_type_mismatch_v1_abort
.L348:
	movq	-24(%rbp), %rax
	leaq	8(%rax), %rdx
	cmpq	$-8, %rax
	jb	.L349
	movq	-24(%rbp), %rax
	movq	%rax, %rsi
	movl	$.Lubsan_data149, %edi
	call	__ubsan_handle_pointer_overflow_abort
.L349:
	movq	-24(%rbp), %rax
	movq	8(%rax), %rcx
	movq	-24(%rbp), %rax
	cmpq	$0, -24(%rbp)
	je	.L350
	movq	%rax, %rdx
	andl	$7, %edx
	testq	%rdx, %rdx
	je	.L351
.L350:
	movq	%rax, %rsi
	movl	$.Lubsan_data150, %edi
	call	__ubsan_handle_type_mismatch_v1_abort
.L351:
	movq	-24(%rbp), %rax
	leaq	16(%rax), %rdx
	cmpq	$-16, %rax
	jb	.L352
	movq	-24(%rbp), %rax
	movq	%rax, %rsi
	movl	$.Lubsan_data151, %edi
	call	__ubsan_handle_pointer_overflow_abort
.L352:
	movq	-24(%rbp), %rax
	addq	$16, %rax
	movq	%rax, %rdx
	shrq	$3, %rdx
	addq	$2147450880, %rdx
	movzbl	(%rdx), %edx
	testb	%dl, %dl
	je	.L353
	movq	%rax, %rdi
	call	__asan_report_load8
.L353:
	movq	-24(%rbp), %rax
	movq	16(%rax), %rsi
	movq	-24(%rbp), %rax
	cmpq	$0, -24(%rbp)
	je	.L354
	movq	%rax, %rdx
	andl	$7, %edx
	testq	%rdx, %rdx
	je	.L355
.L354:
	movq	%rax, %rsi
	movl	$.Lubsan_data152, %edi
	call	__ubsan_handle_type_mismatch_v1_abort
.L355:
	movq	-24(%rbp), %rax
	leaq	32(%rax), %rdx
	cmpq	$-32, %rax
	jb	.L356
	movq	-24(%rbp), %rax
	movq	%rax, %rsi
	movl	$.Lubsan_data153, %edi
	call	__ubsan_handle_pointer_overflow_abort
.L356:
	movq	-24(%rbp), %rax
	addq	$32, %rax
	movq	%rax, %rdx
	shrq	$3, %rdx
	addq	$2147450880, %rdx
	movzbl	(%rdx), %edx
	testb	%dl, %dl
	je	.L357
	movq	%rax, %rdi
	call	__asan_report_load8
.L357:
	movq	-24(%rbp), %rax
	movq	32(%rax), %rax
	imulq	%rax, %rsi
	movq	%rsi, %rdx
	movq	%rcx, %rsi
	leaq	(%rsi,%rdx), %rax
	movq	%rdx, %rdi
	notq	%rdi
	shrq	$63, %rdi
	testb	%dil, %dil
	je	.L358
	cmpq	%rsi, %rax
	jnb	.L359
.L360:
	movq	%rax, %rdx
	movq	%rcx, %rsi
	movl	$.Lubsan_data154, %edi
	call	__ubsan_handle_pointer_overflow_abort
.L358:
	cmpq	%rsi, %rax
	ja	.L360
.L359:
	leaq	(%rcx,%rdx), %rax
	movq	%rax, %rdx
	testq	%rax, %rax
	je	.L361
	movq	%rdx, %rcx
	andl	$7, %ecx
	testq	%rcx, %rcx
	je	.L362
.L361:
	movq	%rdx, %rsi
	movl	$.Lubsan_data155, %edi
	call	__ubsan_handle_type_mismatch_v1_abort
.L362:
	movq	%rax, %rdx
	movq	%rdx, %rcx
	shrq	$3, %rcx
	addq	$2147450880, %rcx
	movzbl	(%rcx), %ecx
	testb	%cl, %cl
	je	.L363
	movq	%rdx, %rdi
	call	__asan_report_load8
.L363:
	movq	(%rax), %rax
	movabsq	$-7954798182897160910, %rdx
	cmpq	%rdx, %rax
	sete	%al
	movzbl	%al, %eax
	movl	%eax, -4(%rbp)
	cmpl	$0, -4(%rbp)
	je	.L364
	movq	-24(%rbp), %rax
	cmpq	$0, -24(%rbp)
	je	.L365
	movq	%rax, %rdx
	andl	$7, %edx
	testq	%rdx, %rdx
	je	.L366
.L365:
	movq	%rax, %rsi
	movl	$.Lubsan_data156, %edi
	call	__ubsan_handle_type_mismatch_v1_abort
.L366:
	movq	-24(%rbp), %rax
	leaq	25(%rax), %rdx
	cmpq	$-25, %rax
	jb	.L367
	movq	-24(%rbp), %rax
	movq	%rax, %rsi
	movl	$.Lubsan_data157, %edi
	call	__ubsan_handle_pointer_overflow_abort
.L367:
	movq	-24(%rbp), %rax
	addq	$24, %rax
	movq	%rax, %rdx
	movq	%rdx, %rax
	shrq	$3, %rax
	addq	$2147450880, %rax
	movzbl	(%rax), %eax
	testb	%al, %al
	setne	%cl
	cmpb	$1, %al
	setle	%al
	andl	%ecx, %eax
	testb	%al, %al
	je	.L368
	movq	%rdx, %rdi
	call	__asan_report_store2
.L368:
	movq	-24(%rbp), %rax
	movzbl	25(%rax), %edx
	andl	$-2, %edx
	movb	%dl, 25(%rax)
	jmp	.L369
.L364:
	movq	-24(%rbp), %rax
	cmpq	$0, -24(%rbp)
	je	.L370
	movq	%rax, %rdx
	andl	$7, %edx
	testq	%rdx, %rdx
	je	.L371
.L370:
	movq	%rax, %rsi
	movl	$.Lubsan_data158, %edi
	call	__ubsan_handle_type_mismatch_v1_abort
.L371:
	movq	-24(%rbp), %rax
	leaq	25(%rax), %rdx
	cmpq	$-25, %rax
	jb	.L372
	movq	-24(%rbp), %rax
	movq	%rax, %rsi
	movl	$.Lubsan_data159, %edi
	call	__ubsan_handle_pointer_overflow_abort
.L372:
	movq	-24(%rbp), %rax
	addq	$24, %rax
	movq	%rax, %rdx
	movq	%rdx, %rax
	shrq	$3, %rax
	addq	$2147450880, %rax
	movzbl	(%rax), %eax
	testb	%al, %al
	setne	%cl
	cmpb	$1, %al
	setle	%al
	andl	%ecx, %eax
	testb	%al, %al
	je	.L373
	movq	%rdx, %rdi
	call	__asan_report_store2
.L373:
	movq	-24(%rbp), %rax
	movzbl	25(%rax), %edx
	andl	$-2, %edx
	movb	%dl, 25(%rax)
.L369:
	cmpl	$0, -8(%rbp)
	je	.L374
	movq	-24(%rbp), %rax
	cmpq	$0, -24(%rbp)
	je	.L375
	movq	%rax, %rdx
	andl	$7, %edx
	testq	%rdx, %rdx
	je	.L376
.L375:
	movq	%rax, %rsi
	movl	$.Lubsan_data160, %edi
	call	__ubsan_handle_type_mismatch_v1_abort
.L376:
	movq	-24(%rbp), %rax
	leaq	24(%rax), %rdx
	cmpq	$-24, %rax
	jb	.L377
	movq	-24(%rbp), %rax
	movq	%rax, %rsi
	movl	$.Lubsan_data161, %edi
	call	__ubsan_handle_pointer_overflow_abort
.L377:
	movq	-24(%rbp), %rax
	addq	$24, %rax
	movq	%rax, %rdx
	movq	%rdx, %rax
	shrq	$3, %rax
	addq	$2147450880, %rax
	movzbl	(%rax), %eax
	testb	%al, %al
	setne	%cl
	cmpb	$1, %al
	setle	%al
	andl	%ecx, %eax
	testb	%al, %al
	je	.L378
	movq	%rdx, %rdi
	call	__asan_report_store2
.L378:
	movq	-24(%rbp), %rax
	movzbl	24(%rax), %edx
	andl	$127, %edx
	movb	%dl, 24(%rax)
	jmp	.L335
.L374:
	movq	-24(%rbp), %rax
	cmpq	$0, -24(%rbp)
	je	.L379
	movq	%rax, %rdx
	andl	$7, %edx
	testq	%rdx, %rdx
	je	.L380
.L379:
	movq	%rax, %rsi
	movl	$.Lubsan_data162, %edi
	call	__ubsan_handle_type_mismatch_v1_abort
.L380:
	movq	-24(%rbp), %rax
	leaq	24(%rax), %rdx
	cmpq	$-24, %rax
	jb	.L381
	movq	-24(%rbp), %rax
	movq	%rax, %rsi
	movl	$.Lubsan_data163, %edi
	call	__ubsan_handle_pointer_overflow_abort
.L381:
	movq	-24(%rbp), %rax
	addq	$24, %rax
	movq	%rax, %rdx
	movq	%rdx, %rax
	shrq	$3, %rax
	addq	$2147450880, %rax
	movzbl	(%rax), %eax
	testb	%al, %al
	setne	%cl
	cmpb	$1, %al
	setle	%al
	andl	%ecx, %eax
	testb	%al, %al
	je	.L382
	movq	%rdx, %rdi
	call	__asan_report_store2
.L382:
	movq	-24(%rbp), %rax
	movzbl	24(%rax), %edx
	andl	$127, %edx
	movb	%dl, 24(%rax)
	jmp	.L335
.L383:
	nop
.L335:
	leave
	.cfi_def_cfa 7, 8
	ret
	.cfi_endproc
.LFE10:
	.size	stack_check_canary_data, .-stack_check_canary_data
	.data
	.align 32
	.type	.Lubsan_data164, @object
	.size	.Lubsan_data164, 32
.Lubsan_data164:
	.quad	.LC0
	.long	246
	.long	17
	.quad	.Lubsan_type0
	.byte	3
	.byte	3
	.zero	6
	.zero	32
	.align 32
	.type	.Lubsan_data165, @object
	.size	.Lubsan_data165, 16
.Lubsan_data165:
	.quad	.LC0
	.long	246
	.long	17
	.zero	48
	.align 32
	.type	.Lubsan_data166, @object
	.size	.Lubsan_data166, 32
.Lubsan_data166:
	.quad	.LC0
	.long	247
	.long	19
	.quad	.Lubsan_type0
	.byte	3
	.byte	3
	.zero	6
	.zero	32
	.align 32
	.type	.Lubsan_data167, @object
	.size	.Lubsan_data167, 16
.Lubsan_data167:
	.quad	.LC0
	.long	247
	.long	19
	.zero	48
	.text
	.globl	stack_set_hash
	.type	stack_set_hash, @function
stack_set_hash:
.LASANPC11:
.LFB11:
	.cfi_startproc
	pushq	%rbp
	.cfi_def_cfa_offset 16
	.cfi_offset 6, -16
	movq	%rsp, %rbp
	.cfi_def_cfa_register 6
	subq	$16, %rsp
	movq	%rdi, -8(%rbp)
	cmpq	$0, -8(%rbp)
	jne	.L385
	call	__asan_handle_no_return
	movl	$__PRETTY_FUNCTION__.3, %ecx
	movl	$243, %edx
	movl	$.LC0, %esi
	movl	$.LC1, %edi
	call	__assert_fail
.L385:
	cmpq	$0, -8(%rbp)
	je	.L396
	movq	-8(%rbp), %rax
	movq	%rax, %rdi
	call	stack_data_hash_calc
	movl	%eax, %edx
	movq	-8(%rbp), %rax
	cmpq	$0, -8(%rbp)
	je	.L388
	movq	%rax, %rcx
	andl	$7, %ecx
	testq	%rcx, %rcx
	je	.L389
.L388:
	movq	%rax, %rsi
	movl	$.Lubsan_data164, %edi
	call	__ubsan_handle_type_mismatch_v1_abort
.L389:
	movq	-8(%rbp), %rax
	leaq	56(%rax), %rcx
	cmpq	$-56, %rax
	jb	.L390
	movq	-8(%rbp), %rax
	movq	%rcx, %rdx
	movq	%rax, %rsi
	movl	$.Lubsan_data165, %edi
	call	__ubsan_handle_pointer_overflow_abort
.L390:
	movq	-8(%rbp), %rax
	addq	$56, %rax
	movq	%rax, %rcx
	movq	%rcx, %rax
	shrq	$3, %rax
	addq	$2147450880, %rax
	movzbl	(%rax), %eax
	testb	%al, %al
	setne	%sil
	cmpb	$3, %al
	setle	%al
	andl	%esi, %eax
	testb	%al, %al
	je	.L391
	movq	%rcx, %rdi
	call	__asan_report_store4
.L391:
	movq	-8(%rbp), %rax
	movl	%edx, 56(%rax)
	movq	-8(%rbp), %rax
	movq	%rax, %rdi
	call	stack_header_hash_calc
	movl	%eax, %ecx
	movq	-8(%rbp), %rax
	cmpq	$0, -8(%rbp)
	je	.L392
	movq	%rax, %rdx
	andl	$7, %edx
	testq	%rdx, %rdx
	je	.L393
.L392:
	movq	%rax, %rsi
	movl	$.Lubsan_data166, %edi
	call	__ubsan_handle_type_mismatch_v1_abort
.L393:
	movq	-8(%rbp), %rax
	leaq	60(%rax), %rdx
	cmpq	$-60, %rax
	jb	.L394
	movq	-8(%rbp), %rax
	movq	%rax, %rsi
	movl	$.Lubsan_data167, %edi
	call	__ubsan_handle_pointer_overflow_abort
.L394:
	movq	-8(%rbp), %rax
	addq	$60, %rax
	movq	%rax, %rdx
	shrq	$3, %rdx
	addq	$2147450880, %rdx
	movzbl	(%rdx), %edx
	testb	%dl, %dl
	setne	%dil
	movq	%rax, %rsi
	andl	$7, %esi
	addl	$3, %esi
	cmpb	%dl, %sil
	setge	%dl
	andl	%edi, %edx
	testb	%dl, %dl
	je	.L395
	movq	%rax, %rdi
	call	__asan_report_store4
.L395:
	movq	-8(%rbp), %rax
	movl	%ecx, 60(%rax)
	jmp	.L384
.L396:
	nop
.L384:
	leave
	.cfi_def_cfa 7, 8
	ret
	.cfi_endproc
.LFE11:
	.size	stack_set_hash, .-stack_set_hash
	.data
	.align 32
	.type	.Lubsan_data168, @object
	.size	.Lubsan_data168, 32
.Lubsan_data168:
	.quad	.LC0
	.long	256
	.long	11
	.quad	.Lubsan_type0
	.byte	3
	.byte	3
	.zero	6
	.zero	32
	.align 32
	.type	.Lubsan_data169, @object
	.size	.Lubsan_data169, 16
.Lubsan_data169:
	.quad	.LC0
	.long	256
	.long	11
	.zero	48
	.align 32
	.type	.Lubsan_data170, @object
	.size	.Lubsan_data170, 32
.Lubsan_data170:
	.quad	.LC0
	.long	257
	.long	19
	.quad	.Lubsan_type0
	.byte	3
	.byte	3
	.zero	6
	.zero	32
	.align 32
	.type	.Lubsan_data171, @object
	.size	.Lubsan_data171, 16
.Lubsan_data171:
	.quad	.LC0
	.long	257
	.long	19
	.zero	48
	.align 32
	.type	.Lubsan_data172, @object
	.size	.Lubsan_data172, 32
.Lubsan_data172:
	.quad	.LC0
	.long	261
	.long	19
	.quad	.Lubsan_type0
	.byte	3
	.byte	3
	.zero	6
	.zero	32
	.align 32
	.type	.Lubsan_data173, @object
	.size	.Lubsan_data173, 16
.Lubsan_data173:
	.quad	.LC0
	.long	261
	.long	19
	.zero	48
	.text
	.globl	stack_header_hash_calc
	.type	stack_header_hash_calc, @function
stack_header_hash_calc:
.LASANPC12:
.LFB12:
	.cfi_startproc
	pushq	%rbp
	.cfi_def_cfa_offset 16
	.cfi_offset 6, -16
	movq	%rsp, %rbp
	.cfi_def_cfa_register 6
	subq	$32, %rsp
	movq	%rdi, -24(%rbp)
	cmpq	$0, -24(%rbp)
	jne	.L398
	call	__asan_handle_no_return
	movl	$__PRETTY_FUNCTION__.2, %ecx
	movl	$253, %edx
	movl	$.LC0, %esi
	movl	$.LC1, %edi
	call	__assert_fail
.L398:
	cmpq	$0, -24(%rbp)
	jne	.L399
	movl	$0, %eax
	jmp	.L400
.L399:
	movq	-24(%rbp), %rax
	cmpq	$0, -24(%rbp)
	je	.L401
	movq	%rax, %rdx
	andl	$7, %edx
	testq	%rdx, %rdx
	je	.L402
.L401:
	movq	%rax, %rsi
	movl	$.Lubsan_data168, %edi
	call	__ubsan_handle_type_mismatch_v1_abort
.L402:
	movq	-24(%rbp), %rax
	leaq	60(%rax), %rdx
	cmpq	$-60, %rax
	jb	.L403
	movq	-24(%rbp), %rax
	movq	%rax, %rsi
	movl	$.Lubsan_data169, %edi
	call	__ubsan_handle_pointer_overflow_abort
.L403:
	movq	-24(%rbp), %rax
	addq	$60, %rax
	movq	%rax, %rdx
	shrq	$3, %rdx
	addq	$2147450880, %rdx
	movzbl	(%rdx), %edx
	testb	%dl, %dl
	setne	%sil
	movq	%rax, %rcx
	andl	$7, %ecx
	addl	$3, %ecx
	cmpb	%dl, %cl
	setge	%dl
	andl	%esi, %edx
	testb	%dl, %dl
	je	.L404
	movq	%rax, %rdi
	call	__asan_report_load4
.L404:
	movq	-24(%rbp), %rax
	movl	60(%rax), %eax
	movl	%eax, -8(%rbp)
	movq	-24(%rbp), %rax
	cmpq	$0, -24(%rbp)
	je	.L405
	movq	%rax, %rdx
	andl	$7, %edx
	testq	%rdx, %rdx
	je	.L406
.L405:
	movq	%rax, %rsi
	movl	$.Lubsan_data170, %edi
	call	__ubsan_handle_type_mismatch_v1_abort
.L406:
	movq	-24(%rbp), %rax
	leaq	60(%rax), %rdx
	cmpq	$-60, %rax
	jb	.L407
	movq	-24(%rbp), %rax
	movq	%rax, %rsi
	movl	$.Lubsan_data171, %edi
	call	__ubsan_handle_pointer_overflow_abort
.L407:
	movq	-24(%rbp), %rax
	movl	$0, 60(%rax)
	movq	-24(%rbp), %rax
	movl	$72, %esi
	movq	%rax, %rdi
	call	hash_FAQ6
	movl	%eax, -4(%rbp)
	movq	-24(%rbp), %rax
	cmpq	$0, -24(%rbp)
	je	.L408
	movq	%rax, %rdx
	andl	$7, %edx
	testq	%rdx, %rdx
	je	.L409
.L408:
	movq	%rax, %rsi
	movl	$.Lubsan_data172, %edi
	call	__ubsan_handle_type_mismatch_v1_abort
.L409:
	movq	-24(%rbp), %rax
	leaq	60(%rax), %rdx
	cmpq	$-60, %rax
	jb	.L410
	movq	-24(%rbp), %rax
	movq	%rax, %rsi
	movl	$.Lubsan_data173, %edi
	call	__ubsan_handle_pointer_overflow_abort
.L410:
	movq	-24(%rbp), %rax
	addq	$60, %rax
	movq	%rax, %rdx
	shrq	$3, %rdx
	addq	$2147450880, %rdx
	movzbl	(%rdx), %edx
	testb	%dl, %dl
	setne	%sil
	movq	%rax, %rcx
	andl	$7, %ecx
	addl	$3, %ecx
	cmpb	%dl, %cl
	setge	%dl
	andl	%esi, %edx
	testb	%dl, %dl
	je	.L411
	movq	%rax, %rdi
	call	__asan_report_store4
.L411:
	movq	-24(%rbp), %rax
	movl	-8(%rbp), %edx
	movl	%edx, 60(%rax)
	movl	-4(%rbp), %eax
.L400:
	leave
	.cfi_def_cfa 7, 8
	ret
	.cfi_endproc
.LFE12:
	.size	stack_header_hash_calc, .-stack_header_hash_calc
	.data
	.align 32
	.type	.Lubsan_type2, @object
	.size	.Lubsan_type2, 25
.Lubsan_type2:
	.value	-1
	.value	0
	.string	"'const struct stack'"
	.zero	39
	.align 32
	.type	.Lubsan_data174, @object
	.size	.Lubsan_data174, 32
.Lubsan_data174:
	.quad	.LC0
	.long	271
	.long	5
	.quad	.Lubsan_type2
	.byte	3
	.byte	3
	.zero	6
	.zero	32
	.align 32
	.type	.Lubsan_data175, @object
	.size	.Lubsan_data175, 16
.Lubsan_data175:
	.quad	.LC0
	.long	271
	.long	5
	.zero	48
	.align 32
	.type	.Lubsan_data176, @object
	.size	.Lubsan_data176, 32
.Lubsan_data176:
	.quad	.LC0
	.long	271
	.long	11
	.quad	.Lubsan_type2
	.byte	3
	.byte	3
	.zero	6
	.zero	32
	.align 32
	.type	.Lubsan_data177, @object
	.size	.Lubsan_data177, 16
.Lubsan_data177:
	.quad	.LC0
	.long	271
	.long	11
	.zero	48
	.align 32
	.type	.Lubsan_data178, @object
	.size	.Lubsan_data178, 32
.Lubsan_data178:
	.quad	.LC0
	.long	274
	.long	11
	.quad	.Lubsan_type2
	.byte	3
	.byte	3
	.zero	6
	.zero	32
	.align 32
	.type	.Lubsan_data179, @object
	.size	.Lubsan_data179, 16
.Lubsan_data179:
	.quad	.LC0
	.long	274
	.long	11
	.zero	48
	.align 32
	.type	.Lubsan_data180, @object
	.size	.Lubsan_data180, 16
.Lubsan_data180:
	.quad	.LC0
	.long	276
	.long	8
	.zero	48
	.align 32
	.type	.Lubsan_data181, @object
	.size	.Lubsan_data181, 32
.Lubsan_data181:
	.quad	.LC0
	.long	280
	.long	29
	.quad	.Lubsan_type2
	.byte	3
	.byte	3
	.zero	6
	.zero	32
	.align 32
	.type	.Lubsan_data182, @object
	.size	.Lubsan_data182, 16
.Lubsan_data182:
	.quad	.LC0
	.long	280
	.long	29
	.zero	48
	.text
	.globl	stack_data_hash_calc
	.type	stack_data_hash_calc, @function
stack_data_hash_calc:
.LASANPC13:
.LFB13:
	.cfi_startproc
	pushq	%rbp
	.cfi_def_cfa_offset 16
	.cfi_offset 6, -16
	movq	%rsp, %rbp
	.cfi_def_cfa_register 6
	subq	$32, %rsp
	movq	%rdi, -24(%rbp)
	cmpq	$0, -24(%rbp)
	jne	.L413
	call	__asan_handle_no_return
	movl	$__PRETTY_FUNCTION__.1, %ecx
	movl	$270, %edx
	movl	$.LC0, %esi
	movl	$.LC1, %edi
	call	__assert_fail
.L413:
	cmpq	$0, -24(%rbp)
	jne	.L414
	movl	$0, %eax
	jmp	.L415
.L414:
	movq	-24(%rbp), %rax
	cmpq	$0, -24(%rbp)
	je	.L416
	movq	%rax, %rdx
	andl	$7, %edx
	testq	%rdx, %rdx
	je	.L417
.L416:
	movq	%rax, %rsi
	movl	$.Lubsan_data174, %edi
	call	__ubsan_handle_type_mismatch_v1_abort
.L417:
	movq	-24(%rbp), %rax
	leaq	8(%rax), %rdx
	cmpq	$-8, %rax
	jb	.L418
	movq	-24(%rbp), %rax
	movq	%rax, %rsi
	movl	$.Lubsan_data175, %edi
	call	__ubsan_handle_pointer_overflow_abort
.L418:
	movq	-24(%rbp), %rax
	addq	$8, %rax
	movq	%rax, %rdx
	shrq	$3, %rdx
	addq	$2147450880, %rdx
	movzbl	(%rdx), %edx
	testb	%dl, %dl
	je	.L419
	movq	%rax, %rdi
	call	__asan_report_load8
.L419:
	movq	-24(%rbp), %rax
	movq	8(%rax), %rax
	testq	%rax, %rax
	jne	.L420
	call	__asan_handle_no_return
	movl	$__PRETTY_FUNCTION__.1, %ecx
	movl	$271, %edx
	movl	$.LC0, %esi
	movl	$.LC8, %edi
	call	__assert_fail
.L420:
	movq	-24(%rbp), %rax
	cmpq	$0, -24(%rbp)
	je	.L421
	movq	%rax, %rdx
	andl	$7, %edx
	testq	%rdx, %rdx
	je	.L422
.L421:
	movq	%rax, %rsi
	movl	$.Lubsan_data176, %edi
	call	__ubsan_handle_type_mismatch_v1_abort
.L422:
	movq	-24(%rbp), %rax
	leaq	8(%rax), %rdx
	cmpq	$-8, %rax
	jb	.L423
	movq	-24(%rbp), %rax
	movq	%rax, %rsi
	movl	$.Lubsan_data177, %edi
	call	__ubsan_handle_pointer_overflow_abort
.L423:
	movq	-24(%rbp), %rax
	addq	$8, %rax
	movq	%rax, %rdx
	shrq	$3, %rdx
	addq	$2147450880, %rdx
	movzbl	(%rdx), %edx
	testb	%dl, %dl
	je	.L424
	movq	%rax, %rdi
	call	__asan_report_load8
.L424:
	movq	-24(%rbp), %rax
	movq	8(%rax), %rax
	testq	%rax, %rax
	jne	.L425
	movl	$0, %eax
	jmp	.L415
.L425:
	movq	-24(%rbp), %rax
	cmpq	$0, -24(%rbp)
	je	.L426
	movq	%rax, %rdx
	andl	$7, %edx
	testq	%rdx, %rdx
	je	.L427
.L426:
	movq	%rax, %rsi
	movl	$.Lubsan_data178, %edi
	call	__ubsan_handle_type_mismatch_v1_abort
.L427:
	movq	-24(%rbp), %rax
	leaq	8(%rax), %rdx
	cmpq	$-8, %rax
	jb	.L428
	movq	-24(%rbp), %rax
	movq	%rax, %rsi
	movl	$.Lubsan_data179, %edi
	call	__ubsan_handle_pointer_overflow_abort
.L428:
	movq	-24(%rbp), %rax
	addq	$8, %rax
	movq	%rax, %rdx
	shrq	$3, %rdx
	addq	$2147450880, %rdx
	movzbl	(%rdx), %edx
	testb	%dl, %dl
	je	.L429
	movq	%rax, %rdi
	call	__asan_report_load8
.L429:
	movq	-24(%rbp), %rax
	movq	8(%rax), %rax
	movq	%rax, -8(%rbp)
	movq	-8(%rbp), %rax
	leaq	-8(%rax), %rdx
	cmpq	$8, %rax
	jnb	.L430
	movq	-8(%rbp), %rax
	movq	%rax, %rsi
	movl	$.Lubsan_data180, %edi
	call	__ubsan_handle_pointer_overflow_abort
.L430:
	subq	$8, -8(%rbp)
	movq	-24(%rbp), %rax
	cmpq	$0, -24(%rbp)
	je	.L431
	movq	%rax, %rdx
	andl	$7, %edx
	testq	%rdx, %rdx
	je	.L432
.L431:
	movq	%rax, %rsi
	movl	$.Lubsan_data181, %edi
	call	__ubsan_handle_type_mismatch_v1_abort
.L432:
	movq	-24(%rbp), %rax
	leaq	40(%rax), %rdx
	cmpq	$-40, %rax
	jb	.L433
	movq	-24(%rbp), %rax
	movq	%rax, %rsi
	movl	$.Lubsan_data182, %edi
	call	__ubsan_handle_pointer_overflow_abort
.L433:
	movq	-24(%rbp), %rax
	addq	$40, %rax
	movq	%rax, %rdx
	shrq	$3, %rdx
	addq	$2147450880, %rdx
	movzbl	(%rdx), %edx
	testb	%dl, %dl
	je	.L434
	movq	%rax, %rdi
	call	__asan_report_load8
.L434:
	movq	-24(%rbp), %rax
	movq	40(%rax), %rdx
	movq	-8(%rbp), %rax
	movq	%rdx, %rsi
	movq	%rax, %rdi
	call	hash_FAQ6
.L415:
	leave
	.cfi_def_cfa 7, 8
	ret
	.cfi_endproc
.LFE13:
	.size	stack_data_hash_calc, .-stack_data_hash_calc
	.data
	.align 32
	.type	.Lubsan_data183, @object
	.size	.Lubsan_data183, 16
.Lubsan_data183:
	.quad	.LC0
	.long	293
	.long	30
	.zero	48
	.align 32
	.type	.Lubsan_type3, @object
	.size	.Lubsan_type3, 20
.Lubsan_type3:
	.value	-1
	.value	0
	.string	"'const uint8_t'"
	.zero	44
	.align 32
	.type	.Lubsan_data184, @object
	.size	.Lubsan_data184, 32
.Lubsan_data184:
	.quad	.LC0
	.long	293
	.long	30
	.quad	.Lubsan_type3
	.byte	0
	.byte	0
	.zero	6
	.zero	32
	.section	.rodata
	.align 32
.LC9:
	.string	"(mem_start) != NULL"
	.zero	44
	.text
	.globl	hash_FAQ6
	.type	hash_FAQ6, @function
hash_FAQ6:
.LASANPC14:
.LFB14:
	.cfi_startproc
	pushq	%rbp
	.cfi_def_cfa_offset 16
	.cfi_offset 6, -16
	movq	%rsp, %rbp
	.cfi_def_cfa_register 6
	subq	$32, %rsp
	movq	%rdi, -24(%rbp)
	movq	%rsi, -32(%rbp)
	cmpq	$0, -24(%rbp)
	jne	.L436
	call	__asan_handle_no_return
	movl	$__PRETTY_FUNCTION__.0, %ecx
	movl	$286, %edx
	movl	$.LC0, %esi
	movl	$.LC9, %edi
	call	__assert_fail
.L436:
	cmpq	$0, -24(%rbp)
	jne	.L437
	movl	$0, %eax
	jmp	.L438
.L437:
	movl	$0, -12(%rbp)
	movq	$0, -8(%rbp)
	jmp	.L439
.L445:
	movq	-24(%rbp), %rdx
	movq	-8(%rbp), %rax
	addq	%rdx, %rax
	movq	-8(%rbp), %rcx
	notq	%rcx
	shrq	$63, %rcx
	testb	%cl, %cl
	je	.L440
	cmpq	%rdx, %rax
	jnb	.L441
.L442:
	movq	-24(%rbp), %rcx
	movq	%rax, %rdx
	movq	%rcx, %rsi
	movl	$.Lubsan_data183, %edi
	call	__ubsan_handle_pointer_overflow_abort
.L440:
	cmpq	%rdx, %rax
	ja	.L442
.L441:
	movq	-24(%rbp), %rdx
	movq	-8(%rbp), %rax
	addq	%rdx, %rax
	testq	%rax, %rax
	jne	.L443
	movl	$0, %esi
	movl	$.Lubsan_data184, %edi
	call	__ubsan_handle_type_mismatch_v1_abort
.L443:
	movq	%rax, %rdx
	movq	%rdx, %rcx
	shrq	$3, %rcx
	addq	$2147450880, %rcx
	movzbl	(%rcx), %ecx
	testb	%cl, %cl
	setne	%sil
	movq	%rdx, %rdi
	andl	$7, %edi
	cmpb	%cl, %dil
	setge	%cl
	andl	%esi, %ecx
	testb	%cl, %cl
	je	.L444
	movq	%rdx, %rdi
	call	__asan_report_load1
.L444:
	movzbl	(%rax), %eax
	movzbl	%al, %eax
	addl	%eax, -12(%rbp)
	movl	-12(%rbp), %eax
	sall	$10, %eax
	addl	%eax, -12(%rbp)
	movl	-12(%rbp), %eax
	shrl	$6, %eax
	xorl	%eax, -12(%rbp)
	addq	$1, -8(%rbp)
.L439:
	movq	-8(%rbp), %rax
	cmpq	-32(%rbp), %rax
	jb	.L445
	movl	-12(%rbp), %eax
	sall	$3, %eax
	addl	%eax, -12(%rbp)
	movl	-12(%rbp), %eax
	shrl	$11, %eax
	xorl	%eax, -12(%rbp)
	movl	-12(%rbp), %eax
	sall	$15, %eax
	addl	%eax, -12(%rbp)
	movl	-12(%rbp), %eax
.L438:
	leave
	.cfi_def_cfa 7, 8
	ret
	.cfi_endproc
.LFE14:
	.size	hash_FAQ6, .-hash_FAQ6
	.section	.rodata
	.align 32
	.type	__PRETTY_FUNCTION__.14, @object
	.size	__PRETTY_FUNCTION__.14, 11
__PRETTY_FUNCTION__.14:
	.string	"stack_ctor"
	.zero	53
	.align 32
	.type	__PRETTY_FUNCTION__.13, @object
	.size	__PRETTY_FUNCTION__.13, 11
__PRETTY_FUNCTION__.13:
	.string	"stack_push"
	.zero	53
	.align 32
	.type	__PRETTY_FUNCTION__.12, @object
	.size	__PRETTY_FUNCTION__.12, 10
__PRETTY_FUNCTION__.12:
	.string	"stack_pop"
	.zero	54
	.align 32
	.type	__PRETTY_FUNCTION__.11, @object
	.size	__PRETTY_FUNCTION__.11, 13
__PRETTY_FUNCTION__.11:
	.string	"stack_resize"
	.zero	51
	.align 32
	.type	__PRETTY_FUNCTION__.10, @object
	.size	__PRETTY_FUNCTION__.10, 16
__PRETTY_FUNCTION__.10:
	.string	"stack_size_calc"
	.zero	48
	.align 32
	.type	__PRETTY_FUNCTION__.9, @object
	.size	__PRETTY_FUNCTION__.9, 11
__PRETTY_FUNCTION__.9:
	.string	"stack_dtor"
	.zero	53
	.align 32
	.type	__PRETTY_FUNCTION__.8, @object
	.size	__PRETTY_FUNCTION__.8, 12
__PRETTY_FUNCTION__.8:
	.string	"stack_check"
	.zero	52
	.align 32
	.type	__PRETTY_FUNCTION__.7, @object
	.size	__PRETTY_FUNCTION__.7, 24
__PRETTY_FUNCTION__.7:
	.string	"stack_set_canary_header"
	.zero	40
	.align 32
	.type	__PRETTY_FUNCTION__.6, @object
	.size	__PRETTY_FUNCTION__.6, 22
__PRETTY_FUNCTION__.6:
	.string	"stack_set_canary_data"
	.zero	42
	.align 32
	.type	__PRETTY_FUNCTION__.5, @object
	.size	__PRETTY_FUNCTION__.5, 26
__PRETTY_FUNCTION__.5:
	.string	"stack_check_canary_header"
	.zero	38
	.align 32
	.type	__PRETTY_FUNCTION__.4, @object
	.size	__PRETTY_FUNCTION__.4, 24
__PRETTY_FUNCTION__.4:
	.string	"stack_check_canary_data"
	.zero	40
	.align 32
	.type	__PRETTY_FUNCTION__.3, @object
	.size	__PRETTY_FUNCTION__.3, 15
__PRETTY_FUNCTION__.3:
	.string	"stack_set_hash"
	.zero	49
	.align 32
	.type	__PRETTY_FUNCTION__.2, @object
	.size	__PRETTY_FUNCTION__.2, 23
__PRETTY_FUNCTION__.2:
	.string	"stack_header_hash_calc"
	.zero	41
	.align 32
	.type	__PRETTY_FUNCTION__.1, @object
	.size	__PRETTY_FUNCTION__.1, 21
__PRETTY_FUNCTION__.1:
	.string	"stack_data_hash_calc"
	.zero	43
	.align 32
	.type	__PRETTY_FUNCTION__.0, @object
	.size	__PRETTY_FUNCTION__.0, 10
__PRETTY_FUNCTION__.0:
	.string	"hash_FAQ6"
	.zero	54
	.data
	.align 32
	.type	.Lubsan_data1, @object
	.size	.Lubsan_data1, 40
.Lubsan_data1:
	.quad	.LC0
	.long	149
	.long	5
	.quad	0
	.long	0
	.long	0
	.long	4
	.zero	4
	.zero	56
	.align 16
	.type	.LASANLOC1, @object
	.size	.LASANLOC1, 16
.LASANLOC1:
	.quad	.LC0
	.long	286
	.long	33
	.align 16
	.type	.LASANLOC2, @object
	.size	.LASANLOC2, 16
.LASANLOC2:
	.quad	.LC0
	.long	270
	.long	33
	.align 16
	.type	.LASANLOC3, @object
	.size	.LASANLOC3, 16
.LASANLOC3:
	.quad	.LC0
	.long	253
	.long	33
	.align 16
	.type	.LASANLOC4, @object
	.size	.LASANLOC4, 16
.LASANLOC4:
	.quad	.LC0
	.long	243
	.long	33
	.align 16
	.type	.LASANLOC5, @object
	.size	.LASANLOC5, 16
.LASANLOC5:
	.quad	.LC0
	.long	210
	.long	33
	.align 16
	.type	.LASANLOC6, @object
	.size	.LASANLOC6, 16
.LASANLOC6:
	.quad	.LC0
	.long	181
	.long	33
	.align 16
	.type	.LASANLOC7, @object
	.size	.LASANLOC7, 16
.LASANLOC7:
	.quad	.LC0
	.long	170
	.long	33
	.align 16
	.type	.LASANLOC8, @object
	.size	.LASANLOC8, 16
.LASANLOC8:
	.quad	.LC0
	.long	160
	.long	33
	.align 16
	.type	.LASANLOC9, @object
	.size	.LASANLOC9, 16
.LASANLOC9:
	.quad	.LC0
	.long	144
	.long	36
	.align 16
	.type	.LASANLOC10, @object
	.size	.LASANLOC10, 16
.LASANLOC10:
	.quad	.LC0
	.long	128
	.long	33
	.align 16
	.type	.LASANLOC11, @object
	.size	.LASANLOC11, 16
.LASANLOC11:
	.quad	.LC0
	.long	112
	.long	33
	.align 16
	.type	.LASANLOC12, @object
	.size	.LASANLOC12, 16
.LASANLOC12:
	.quad	.LC0
	.long	80
	.long	32
	.align 16
	.type	.LASANLOC13, @object
	.size	.LASANLOC13, 16
.LASANLOC13:
	.quad	.LC0
	.long	58
	.long	32
	.align 16
	.type	.LASANLOC14, @object
	.size	.LASANLOC14, 16
.LASANLOC14:
	.quad	.LC0
	.long	37
	.long	32
	.align 16
	.type	.LASANLOC15, @object
	.size	.LASANLOC15, 16
.LASANLOC15:
	.quad	.LC0
	.long	6
	.long	31
	.section	.rodata
.LC10:
	.string	"*.Lubsan_data184"
.LC11:
	.string	"*.Lubsan_type3"
.LC12:
	.string	"*.Lubsan_data183"
.LC13:
	.string	"*.Lubsan_data182"
.LC14:
	.string	"*.Lubsan_data181"
.LC15:
	.string	"*.Lubsan_data180"
.LC16:
	.string	"*.Lubsan_data179"
.LC17:
	.string	"*.Lubsan_data178"
.LC18:
	.string	"*.Lubsan_data177"
.LC19:
	.string	"*.Lubsan_data176"
.LC20:
	.string	"*.Lubsan_data175"
.LC21:
	.string	"*.Lubsan_data174"
.LC22:
	.string	"*.Lubsan_type2"
.LC23:
	.string	"*.Lubsan_data173"
.LC24:
	.string	"*.Lubsan_data172"
.LC25:
	.string	"*.Lubsan_data171"
.LC26:
	.string	"*.Lubsan_data170"
.LC27:
	.string	"*.Lubsan_data169"
.LC28:
	.string	"*.Lubsan_data168"
.LC29:
	.string	"*.Lubsan_data167"
.LC30:
	.string	"*.Lubsan_data166"
.LC31:
	.string	"*.Lubsan_data165"
.LC32:
	.string	"*.Lubsan_data164"
.LC33:
	.string	"*.Lubsan_data163"
.LC34:
	.string	"*.Lubsan_data162"
.LC35:
	.string	"*.Lubsan_data161"
.LC36:
	.string	"*.Lubsan_data160"
.LC37:
	.string	"*.Lubsan_data159"
.LC38:
	.string	"*.Lubsan_data158"
.LC39:
	.string	"*.Lubsan_data157"
.LC40:
	.string	"*.Lubsan_data156"
.LC41:
	.string	"*.Lubsan_data155"
.LC42:
	.string	"*.Lubsan_data154"
.LC43:
	.string	"*.Lubsan_data153"
.LC44:
	.string	"*.Lubsan_data152"
.LC45:
	.string	"*.Lubsan_data151"
.LC46:
	.string	"*.Lubsan_data150"
.LC47:
	.string	"*.Lubsan_data149"
.LC48:
	.string	"*.Lubsan_data148"
.LC49:
	.string	"*.Lubsan_data147"
.LC50:
	.string	"*.Lubsan_data146"
.LC51:
	.string	"*.Lubsan_data145"
.LC52:
	.string	"*.Lubsan_data144"
.LC53:
	.string	"*.Lubsan_data143"
.LC54:
	.string	"*.Lubsan_data142"
.LC55:
	.string	"*.Lubsan_data141"
.LC56:
	.string	"*.Lubsan_data140"
.LC57:
	.string	"*.Lubsan_data139"
.LC58:
	.string	"*.Lubsan_data138"
.LC59:
	.string	"*.Lubsan_data137"
.LC60:
	.string	"*.Lubsan_data136"
.LC61:
	.string	"*.Lubsan_data135"
.LC62:
	.string	"*.Lubsan_data134"
.LC63:
	.string	"*.Lubsan_data133"
.LC64:
	.string	"*.Lubsan_data132"
.LC65:
	.string	"*.Lubsan_data131"
.LC66:
	.string	"*.Lubsan_data130"
.LC67:
	.string	"*.Lubsan_data129"
.LC68:
	.string	"*.Lubsan_data128"
.LC69:
	.string	"*.Lubsan_data127"
.LC70:
	.string	"*.Lubsan_data126"
.LC71:
	.string	"*.Lubsan_data125"
.LC72:
	.string	"*.Lubsan_data124"
.LC73:
	.string	"*.Lubsan_type1"
.LC74:
	.string	"*.Lubsan_data123"
.LC75:
	.string	"*.Lubsan_data122"
.LC76:
	.string	"*.Lubsan_data121"
.LC77:
	.string	"*.Lubsan_data120"
.LC78:
	.string	"*.Lubsan_data119"
.LC79:
	.string	"*.Lubsan_data118"
.LC80:
	.string	"*.Lubsan_data117"
.LC81:
	.string	"*.Lubsan_data116"
.LC82:
	.string	"*.Lubsan_data115"
.LC83:
	.string	"*.Lubsan_data114"
.LC84:
	.string	"*.Lubsan_data113"
.LC85:
	.string	"*.Lubsan_data112"
.LC86:
	.string	"*.Lubsan_data111"
.LC87:
	.string	"*.Lubsan_data110"
.LC88:
	.string	"*.Lubsan_data109"
.LC89:
	.string	"*.Lubsan_data108"
.LC90:
	.string	"*.Lubsan_data107"
.LC91:
	.string	"*.Lubsan_data106"
.LC92:
	.string	"*.Lubsan_data105"
.LC93:
	.string	"*.Lubsan_data104"
.LC94:
	.string	"*.Lubsan_data103"
.LC95:
	.string	"*.Lubsan_data102"
.LC96:
	.string	"*.Lubsan_data101"
.LC97:
	.string	"*.Lubsan_data100"
.LC98:
	.string	"*.Lubsan_data99"
.LC99:
	.string	"*.Lubsan_data98"
.LC100:
	.string	"*.Lubsan_data97"
.LC101:
	.string	"*.Lubsan_data96"
.LC102:
	.string	"*.Lubsan_data95"
.LC103:
	.string	"*.Lubsan_data94"
.LC104:
	.string	"*.Lubsan_data93"
.LC105:
	.string	"*.Lubsan_data92"
.LC106:
	.string	"*.Lubsan_data91"
.LC107:
	.string	"*.Lubsan_data90"
.LC108:
	.string	"*.Lubsan_data89"
.LC109:
	.string	"*.Lubsan_data88"
.LC110:
	.string	"*.Lubsan_data87"
.LC111:
	.string	"*.Lubsan_data86"
.LC112:
	.string	"*.Lubsan_data85"
.LC113:
	.string	"*.Lubsan_data84"
.LC114:
	.string	"*.Lubsan_data83"
.LC115:
	.string	"*.Lubsan_data82"
.LC116:
	.string	"*.Lubsan_data81"
.LC117:
	.string	"*.Lubsan_data80"
.LC118:
	.string	"*.Lubsan_data79"
.LC119:
	.string	"*.Lubsan_data78"
.LC120:
	.string	"*.Lubsan_data77"
.LC121:
	.string	"*.Lubsan_data76"
.LC122:
	.string	"*.Lubsan_data75"
.LC123:
	.string	"*.Lubsan_data74"
.LC124:
	.string	"*.Lubsan_data73"
.LC125:
	.string	"*.Lubsan_data72"
.LC126:
	.string	"*.Lubsan_data71"
.LC127:
	.string	"*.Lubsan_data70"
.LC128:
	.string	"*.Lubsan_data69"
.LC129:
	.string	"*.Lubsan_data68"
.LC130:
	.string	"*.Lubsan_data67"
.LC131:
	.string	"*.Lubsan_data66"
.LC132:
	.string	"*.Lubsan_data65"
.LC133:
	.string	"*.Lubsan_data64"
.LC134:
	.string	"*.Lubsan_data63"
.LC135:
	.string	"*.Lubsan_data62"
.LC136:
	.string	"*.Lubsan_data61"
.LC137:
	.string	"*.Lubsan_data60"
.LC138:
	.string	"*.Lubsan_data59"
.LC139:
	.string	"*.Lubsan_data58"
.LC140:
	.string	"*.Lubsan_data57"
.LC141:
	.string	"*.Lubsan_data56"
.LC142:
	.string	"*.Lubsan_data55"
.LC143:
	.string	"*.Lubsan_data54"
.LC144:
	.string	"*.Lubsan_data53"
.LC145:
	.string	"*.Lubsan_data52"
.LC146:
	.string	"*.Lubsan_data51"
.LC147:
	.string	"*.Lubsan_data50"
.LC148:
	.string	"*.Lubsan_data49"
.LC149:
	.string	"*.Lubsan_data48"
.LC150:
	.string	"*.Lubsan_data47"
.LC151:
	.string	"*.Lubsan_data46"
.LC152:
	.string	"*.Lubsan_data45"
.LC153:
	.string	"*.Lubsan_data44"
.LC154:
	.string	"*.Lubsan_data43"
.LC155:
	.string	"*.Lubsan_data42"
.LC156:
	.string	"*.Lubsan_data41"
.LC157:
	.string	"*.Lubsan_data40"
.LC158:
	.string	"*.Lubsan_data39"
.LC159:
	.string	"*.Lubsan_data38"
.LC160:
	.string	"*.Lubsan_data37"
.LC161:
	.string	"*.Lubsan_data36"
.LC162:
	.string	"*.Lubsan_data35"
.LC163:
	.string	"*.Lubsan_data34"
.LC164:
	.string	"*.Lubsan_data33"
.LC165:
	.string	"*.Lubsan_data32"
.LC166:
	.string	"*.Lubsan_data31"
.LC167:
	.string	"*.Lubsan_data30"
.LC168:
	.string	"*.Lubsan_data29"
.LC169:
	.string	"*.Lubsan_data28"
.LC170:
	.string	"*.Lubsan_data27"
.LC171:
	.string	"*.Lubsan_data26"
.LC172:
	.string	"*.Lubsan_data25"
.LC173:
	.string	"*.Lubsan_data24"
.LC174:
	.string	"*.Lubsan_data23"
.LC175:
	.string	"*.Lubsan_data22"
.LC176:
	.string	"*.Lubsan_data21"
.LC177:
	.string	"*.Lubsan_data20"
.LC178:
	.string	"*.Lubsan_data19"
.LC179:
	.string	"*.Lubsan_data18"
.LC180:
	.string	"*.Lubsan_data17"
.LC181:
	.string	"*.Lubsan_data16"
.LC182:
	.string	"*.Lubsan_data15"
.LC183:
	.string	"*.Lubsan_data14"
.LC184:
	.string	"*.Lubsan_data13"
.LC185:
	.string	"*.Lubsan_data12"
.LC186:
	.string	"*.Lubsan_data11"
.LC187:
	.string	"*.Lubsan_data10"
.LC188:
	.string	"*.Lubsan_data9"
.LC189:
	.string	"*.Lubsan_data8"
.LC190:
	.string	"*.Lubsan_data7"
.LC191:
	.string	"*.Lubsan_data6"
.LC192:
	.string	"*.Lubsan_data5"
.LC193:
	.string	"*.Lubsan_data4"
.LC194:
	.string	"*.Lubsan_data3"
.LC195:
	.string	"*.Lubsan_data2"
.LC196:
	.string	"*.Lubsan_type0"
.LC197:
	.string	"*.Lubsan_data1"
.LC198:
	.string	"__PRETTY_FUNCTION__"
.LC199:
	.string	"*.LC7"
.LC200:
	.string	"*.LC8"
.LC201:
	.string	"*.LC5"
.LC202:
	.string	"*.LC2"
.LC203:
	.string	"*.LC9"
.LC204:
	.string	"*.LC4"
.LC205:
	.string	"*.LC0"
.LC206:
	.string	"*.LC1"
.LC207:
	.string	"*.LC3"
.LC208:
	.string	"*.LC6"
	.data
	.align 32
	.type	.LASAN0, @object
	.size	.LASAN0, 13632
.LASAN0:
	.quad	.Lubsan_data184
	.quad	32
	.quad	64
	.quad	.LC10
	.quad	.LC0
	.quad	0
	.quad	0
	.quad	0
	.quad	.Lubsan_type3
	.quad	20
	.quad	64
	.quad	.LC11
	.quad	.LC0
	.quad	0
	.quad	0
	.quad	0
	.quad	.Lubsan_data183
	.quad	16
	.quad	64
	.quad	.LC12
	.quad	.LC0
	.quad	0
	.quad	0
	.quad	0
	.quad	.Lubsan_data182
	.quad	16
	.quad	64
	.quad	.LC13
	.quad	.LC0
	.quad	0
	.quad	0
	.quad	0
	.quad	.Lubsan_data181
	.quad	32
	.quad	64
	.quad	.LC14
	.quad	.LC0
	.quad	0
	.quad	0
	.quad	0
	.quad	.Lubsan_data180
	.quad	16
	.quad	64
	.quad	.LC15
	.quad	.LC0
	.quad	0
	.quad	0
	.quad	0
	.quad	.Lubsan_data179
	.quad	16
	.quad	64
	.quad	.LC16
	.quad	.LC0
	.quad	0
	.quad	0
	.quad	0
	.quad	.Lubsan_data178
	.quad	32
	.quad	64
	.quad	.LC17
	.quad	.LC0
	.quad	0
	.quad	0
	.quad	0
	.quad	.Lubsan_data177
	.quad	16
	.quad	64
	.quad	.LC18
	.quad	.LC0
	.quad	0
	.quad	0
	.quad	0
	.quad	.Lubsan_data176
	.quad	32
	.quad	64
	.quad	.LC19
	.quad	.LC0
	.quad	0
	.quad	0
	.quad	0
	.quad	.Lubsan_data175
	.quad	16
	.quad	64
	.quad	.LC20
	.quad	.LC0
	.quad	0
	.quad	0
	.quad	0
	.quad	.Lubsan_data174
	.quad	32
	.quad	64
	.quad	.LC21
	.quad	.LC0
	.quad	0
	.quad	0
	.quad	0
	.quad	.Lubsan_type2
	.quad	25
	.quad	64
	.quad	.LC22
	.quad	.LC0
	.quad	0
	.quad	0
	.quad	0
	.quad	.Lubsan_data173
	.quad	16
	.quad	64
	.quad	.LC23
	.quad	.LC0
	.quad	0
	.quad	0
	.quad	0
	.quad	.Lubsan_data172
	.quad	32
	.quad	64
	.quad	.LC24
	.quad	.LC0
	.quad	0
	.quad	0
	.quad	0
	.quad	.Lubsan_data171
	.quad	16
	.quad	64
	.quad	.LC25
	.quad	.LC0
	.quad	0
	.quad	0
	.quad	0
	.quad	.Lubsan_data170
	.quad	32
	.quad	64
	.quad	.LC26
	.quad	.LC0
	.quad	0
	.quad	0
	.quad	0
	.quad	.Lubsan_data169
	.quad	16
	.quad	64
	.quad	.LC27
	.quad	.LC0
	.quad	0
	.quad	0
	.quad	0
	.quad	.Lubsan_data168
	.quad	32
	.quad	64
	.quad	.LC28
	.quad	.LC0
	.quad	0
	.quad	0
	.quad	0
	.quad	.Lubsan_data167
	.quad	16
	.quad	64
	.quad	.LC29
	.quad	.LC0
	.quad	0
	.quad	0
	.quad	0
	.quad	.Lubsan_data166
	.quad	32
	.quad	64
	.quad	.LC30
	.quad	.LC0
	.quad	0
	.quad	0
	.quad	0
	.quad	.Lubsan_data165
	.quad	16
	.quad	64
	.quad	.LC31
	.quad	.LC0
	.quad	0
	.quad	0
	.quad	0
	.quad	.Lubsan_data164
	.quad	32
	.quad	64
	.quad	.LC32
	.quad	.LC0
	.quad	0
	.quad	0
	.quad	0
	.quad	.Lubsan_data163
	.quad	16
	.quad	64
	.quad	.LC33
	.quad	.LC0
	.quad	0
	.quad	0
	.quad	0
	.quad	.Lubsan_data162
	.quad	32
	.quad	64
	.quad	.LC34
	.quad	.LC0
	.quad	0
	.quad	0
	.quad	0
	.quad	.Lubsan_data161
	.quad	16
	.quad	64
	.quad	.LC35
	.quad	.LC0
	.quad	0
	.quad	0
	.quad	0
	.quad	.Lubsan_data160
	.quad	32
	.quad	64
	.quad	.LC36
	.quad	.LC0
	.quad	0
	.quad	0
	.quad	0
	.quad	.Lubsan_data159
	.quad	16
	.quad	64
	.quad	.LC37
	.quad	.LC0
	.quad	0
	.quad	0
	.quad	0
	.quad	.Lubsan_data158
	.quad	32
	.quad	64
	.quad	.LC38
	.quad	.LC0
	.quad	0
	.quad	0
	.quad	0
	.quad	.Lubsan_data157
	.quad	16
	.quad	64
	.quad	.LC39
	.quad	.LC0
	.quad	0
	.quad	0
	.quad	0
	.quad	.Lubsan_data156
	.quad	32
	.quad	64
	.quad	.LC40
	.quad	.LC0
	.quad	0
	.quad	0
	.quad	0
	.quad	.Lubsan_data155
	.quad	32
	.quad	64
	.quad	.LC41
	.quad	.LC0
	.quad	0
	.quad	0
	.quad	0
	.quad	.Lubsan_data154
	.quad	16
	.quad	64
	.quad	.LC42
	.quad	.LC0
	.quad	0
	.quad	0
	.quad	0
	.quad	.Lubsan_data153
	.quad	16
	.quad	64
	.quad	.LC43
	.quad	.LC0
	.quad	0
	.quad	0
	.quad	0
	.quad	.Lubsan_data152
	.quad	32
	.quad	64
	.quad	.LC44
	.quad	.LC0
	.quad	0
	.quad	0
	.quad	0
	.quad	.Lubsan_data151
	.quad	16
	.quad	64
	.quad	.LC45
	.quad	.LC0
	.quad	0
	.quad	0
	.quad	0
	.quad	.Lubsan_data150
	.quad	32
	.quad	64
	.quad	.LC46
	.quad	.LC0
	.quad	0
	.quad	0
	.quad	0
	.quad	.Lubsan_data149
	.quad	16
	.quad	64
	.quad	.LC47
	.quad	.LC0
	.quad	0
	.quad	0
	.quad	0
	.quad	.Lubsan_data148
	.quad	32
	.quad	64
	.quad	.LC48
	.quad	.LC0
	.quad	0
	.quad	0
	.quad	0
	.quad	.Lubsan_data147
	.quad	32
	.quad	64
	.quad	.LC49
	.quad	.LC0
	.quad	0
	.quad	0
	.quad	0
	.quad	.Lubsan_data146
	.quad	16
	.quad	64
	.quad	.LC50
	.quad	.LC0
	.quad	0
	.quad	0
	.quad	0
	.quad	.Lubsan_data145
	.quad	16
	.quad	64
	.quad	.LC51
	.quad	.LC0
	.quad	0
	.quad	0
	.quad	0
	.quad	.Lubsan_data144
	.quad	32
	.quad	64
	.quad	.LC52
	.quad	.LC0
	.quad	0
	.quad	0
	.quad	0
	.quad	.Lubsan_data143
	.quad	16
	.quad	64
	.quad	.LC53
	.quad	.LC0
	.quad	0
	.quad	0
	.quad	0
	.quad	.Lubsan_data142
	.quad	32
	.quad	64
	.quad	.LC54
	.quad	.LC0
	.quad	0
	.quad	0
	.quad	0
	.quad	.Lubsan_data141
	.quad	16
	.quad	64
	.quad	.LC55
	.quad	.LC0
	.quad	0
	.quad	0
	.quad	0
	.quad	.Lubsan_data140
	.quad	32
	.quad	64
	.quad	.LC56
	.quad	.LC0
	.quad	0
	.quad	0
	.quad	0
	.quad	.Lubsan_data139
	.quad	16
	.quad	64
	.quad	.LC57
	.quad	.LC0
	.quad	0
	.quad	0
	.quad	0
	.quad	.Lubsan_data138
	.quad	32
	.quad	64
	.quad	.LC58
	.quad	.LC0
	.quad	0
	.quad	0
	.quad	0
	.quad	.Lubsan_data137
	.quad	16
	.quad	64
	.quad	.LC59
	.quad	.LC0
	.quad	0
	.quad	0
	.quad	0
	.quad	.Lubsan_data136
	.quad	32
	.quad	64
	.quad	.LC60
	.quad	.LC0
	.quad	0
	.quad	0
	.quad	0
	.quad	.Lubsan_data135
	.quad	16
	.quad	64
	.quad	.LC61
	.quad	.LC0
	.quad	0
	.quad	0
	.quad	0
	.quad	.Lubsan_data134
	.quad	32
	.quad	64
	.quad	.LC62
	.quad	.LC0
	.quad	0
	.quad	0
	.quad	0
	.quad	.Lubsan_data133
	.quad	32
	.quad	64
	.quad	.LC63
	.quad	.LC0
	.quad	0
	.quad	0
	.quad	0
	.quad	.Lubsan_data132
	.quad	32
	.quad	64
	.quad	.LC64
	.quad	.LC0
	.quad	0
	.quad	0
	.quad	0
	.quad	.Lubsan_data131
	.quad	16
	.quad	64
	.quad	.LC65
	.quad	.LC0
	.quad	0
	.quad	0
	.quad	0
	.quad	.Lubsan_data130
	.quad	16
	.quad	64
	.quad	.LC66
	.quad	.LC0
	.quad	0
	.quad	0
	.quad	0
	.quad	.Lubsan_data129
	.quad	32
	.quad	64
	.quad	.LC67
	.quad	.LC0
	.quad	0
	.quad	0
	.quad	0
	.quad	.Lubsan_data128
	.quad	16
	.quad	64
	.quad	.LC68
	.quad	.LC0
	.quad	0
	.quad	0
	.quad	0
	.quad	.Lubsan_data127
	.quad	32
	.quad	64
	.quad	.LC69
	.quad	.LC0
	.quad	0
	.quad	0
	.quad	0
	.quad	.Lubsan_data126
	.quad	16
	.quad	64
	.quad	.LC70
	.quad	.LC0
	.quad	0
	.quad	0
	.quad	0
	.quad	.Lubsan_data125
	.quad	32
	.quad	64
	.quad	.LC71
	.quad	.LC0
	.quad	0
	.quad	0
	.quad	0
	.quad	.Lubsan_data124
	.quad	32
	.quad	64
	.quad	.LC72
	.quad	.LC0
	.quad	0
	.quad	0
	.quad	0
	.quad	.Lubsan_type1
	.quad	13
	.quad	64
	.quad	.LC73
	.quad	.LC0
	.quad	0
	.quad	0
	.quad	0
	.quad	.Lubsan_data123
	.quad	16
	.quad	64
	.quad	.LC74
	.quad	.LC0
	.quad	0
	.quad	0
	.quad	0
	.quad	.Lubsan_data122
	.quad	16
	.quad	64
	.quad	.LC75
	.quad	.LC0
	.quad	0
	.quad	0
	.quad	0
	.quad	.Lubsan_data121
	.quad	32
	.quad	64
	.quad	.LC76
	.quad	.LC0
	.quad	0
	.quad	0
	.quad	0
	.quad	.Lubsan_data120
	.quad	16
	.quad	64
	.quad	.LC77
	.quad	.LC0
	.quad	0
	.quad	0
	.quad	0
	.quad	.Lubsan_data119
	.quad	32
	.quad	64
	.quad	.LC78
	.quad	.LC0
	.quad	0
	.quad	0
	.quad	0
	.quad	.Lubsan_data118
	.quad	16
	.quad	64
	.quad	.LC79
	.quad	.LC0
	.quad	0
	.quad	0
	.quad	0
	.quad	.Lubsan_data117
	.quad	32
	.quad	64
	.quad	.LC80
	.quad	.LC0
	.quad	0
	.quad	0
	.quad	0
	.quad	.Lubsan_data116
	.quad	16
	.quad	64
	.quad	.LC81
	.quad	.LC0
	.quad	0
	.quad	0
	.quad	0
	.quad	.Lubsan_data115
	.quad	32
	.quad	64
	.quad	.LC82
	.quad	.LC0
	.quad	0
	.quad	0
	.quad	0
	.quad	.Lubsan_data114
	.quad	32
	.quad	64
	.quad	.LC83
	.quad	.LC0
	.quad	0
	.quad	0
	.quad	0
	.quad	.Lubsan_data113
	.quad	16
	.quad	64
	.quad	.LC84
	.quad	.LC0
	.quad	0
	.quad	0
	.quad	0
	.quad	.Lubsan_data112
	.quad	32
	.quad	64
	.quad	.LC85
	.quad	.LC0
	.quad	0
	.quad	0
	.quad	0
	.quad	.Lubsan_data111
	.quad	16
	.quad	64
	.quad	.LC86
	.quad	.LC0
	.quad	0
	.quad	0
	.quad	0
	.quad	.Lubsan_data110
	.quad	32
	.quad	64
	.quad	.LC87
	.quad	.LC0
	.quad	0
	.quad	0
	.quad	0
	.quad	.Lubsan_data109
	.quad	16
	.quad	64
	.quad	.LC88
	.quad	.LC0
	.quad	0
	.quad	0
	.quad	0
	.quad	.Lubsan_data108
	.quad	32
	.quad	64
	.quad	.LC89
	.quad	.LC0
	.quad	0
	.quad	0
	.quad	0
	.quad	.Lubsan_data107
	.quad	16
	.quad	64
	.quad	.LC90
	.quad	.LC0
	.quad	0
	.quad	0
	.quad	0
	.quad	.Lubsan_data106
	.quad	16
	.quad	64
	.quad	.LC91
	.quad	.LC0
	.quad	0
	.quad	0
	.quad	0
	.quad	.Lubsan_data105
	.quad	32
	.quad	64
	.quad	.LC92
	.quad	.LC0
	.quad	0
	.quad	0
	.quad	0
	.quad	.Lubsan_data104
	.quad	16
	.quad	64
	.quad	.LC93
	.quad	.LC0
	.quad	0
	.quad	0
	.quad	0
	.quad	.Lubsan_data103
	.quad	32
	.quad	64
	.quad	.LC94
	.quad	.LC0
	.quad	0
	.quad	0
	.quad	0
	.quad	.Lubsan_data102
	.quad	16
	.quad	64
	.quad	.LC95
	.quad	.LC0
	.quad	0
	.quad	0
	.quad	0
	.quad	.Lubsan_data101
	.quad	32
	.quad	64
	.quad	.LC96
	.quad	.LC0
	.quad	0
	.quad	0
	.quad	0
	.quad	.Lubsan_data100
	.quad	16
	.quad	64
	.quad	.LC97
	.quad	.LC0
	.quad	0
	.quad	0
	.quad	0
	.quad	.Lubsan_data99
	.quad	32
	.quad	64
	.quad	.LC98
	.quad	.LC0
	.quad	0
	.quad	0
	.quad	0
	.quad	.Lubsan_data98
	.quad	16
	.quad	64
	.quad	.LC99
	.quad	.LC0
	.quad	0
	.quad	0
	.quad	0
	.quad	.Lubsan_data97
	.quad	32
	.quad	64
	.quad	.LC100
	.quad	.LC0
	.quad	0
	.quad	0
	.quad	0
	.quad	.Lubsan_data96
	.quad	16
	.quad	64
	.quad	.LC101
	.quad	.LC0
	.quad	0
	.quad	0
	.quad	0
	.quad	.Lubsan_data95
	.quad	16
	.quad	64
	.quad	.LC102
	.quad	.LC0
	.quad	0
	.quad	0
	.quad	0
	.quad	.Lubsan_data94
	.quad	32
	.quad	64
	.quad	.LC103
	.quad	.LC0
	.quad	0
	.quad	0
	.quad	0
	.quad	.Lubsan_data93
	.quad	16
	.quad	64
	.quad	.LC104
	.quad	.LC0
	.quad	0
	.quad	0
	.quad	0
	.quad	.Lubsan_data92
	.quad	32
	.quad	64
	.quad	.LC105
	.quad	.LC0
	.quad	0
	.quad	0
	.quad	0
	.quad	.Lubsan_data91
	.quad	16
	.quad	64
	.quad	.LC106
	.quad	.LC0
	.quad	0
	.quad	0
	.quad	0
	.quad	.Lubsan_data90
	.quad	32
	.quad	64
	.quad	.LC107
	.quad	.LC0
	.quad	0
	.quad	0
	.quad	0
	.quad	.Lubsan_data89
	.quad	16
	.quad	64
	.quad	.LC108
	.quad	.LC0
	.quad	0
	.quad	0
	.quad	0
	.quad	.Lubsan_data88
	.quad	32
	.quad	64
	.quad	.LC109
	.quad	.LC0
	.quad	0
	.quad	0
	.quad	0
	.quad	.Lubsan_data87
	.quad	16
	.quad	64
	.quad	.LC110
	.quad	.LC0
	.quad	0
	.quad	0
	.quad	0
	.quad	.Lubsan_data86
	.quad	32
	.quad	64
	.quad	.LC111
	.quad	.LC0
	.quad	0
	.quad	0
	.quad	0
	.quad	.Lubsan_data85
	.quad	16
	.quad	64
	.quad	.LC112
	.quad	.LC0
	.quad	0
	.quad	0
	.quad	0
	.quad	.Lubsan_data84
	.quad	32
	.quad	64
	.quad	.LC113
	.quad	.LC0
	.quad	0
	.quad	0
	.quad	0
	.quad	.Lubsan_data83
	.quad	16
	.quad	64
	.quad	.LC114
	.quad	.LC0
	.quad	0
	.quad	0
	.quad	0
	.quad	.Lubsan_data82
	.quad	32
	.quad	64
	.quad	.LC115
	.quad	.LC0
	.quad	0
	.quad	0
	.quad	0
	.quad	.Lubsan_data81
	.quad	16
	.quad	64
	.quad	.LC116
	.quad	.LC0
	.quad	0
	.quad	0
	.quad	0
	.quad	.Lubsan_data80
	.quad	32
	.quad	64
	.quad	.LC117
	.quad	.LC0
	.quad	0
	.quad	0
	.quad	0
	.quad	.Lubsan_data79
	.quad	16
	.quad	64
	.quad	.LC118
	.quad	.LC0
	.quad	0
	.quad	0
	.quad	0
	.quad	.Lubsan_data78
	.quad	32
	.quad	64
	.quad	.LC119
	.quad	.LC0
	.quad	0
	.quad	0
	.quad	0
	.quad	.Lubsan_data77
	.quad	16
	.quad	64
	.quad	.LC120
	.quad	.LC0
	.quad	0
	.quad	0
	.quad	0
	.quad	.Lubsan_data76
	.quad	32
	.quad	64
	.quad	.LC121
	.quad	.LC0
	.quad	0
	.quad	0
	.quad	0
	.quad	.Lubsan_data75
	.quad	16
	.quad	64
	.quad	.LC122
	.quad	.LC0
	.quad	0
	.quad	0
	.quad	0
	.quad	.Lubsan_data74
	.quad	32
	.quad	64
	.quad	.LC123
	.quad	.LC0
	.quad	0
	.quad	0
	.quad	0
	.quad	.Lubsan_data73
	.quad	16
	.quad	64
	.quad	.LC124
	.quad	.LC0
	.quad	0
	.quad	0
	.quad	0
	.quad	.Lubsan_data72
	.quad	32
	.quad	64
	.quad	.LC125
	.quad	.LC0
	.quad	0
	.quad	0
	.quad	0
	.quad	.Lubsan_data71
	.quad	16
	.quad	64
	.quad	.LC126
	.quad	.LC0
	.quad	0
	.quad	0
	.quad	0
	.quad	.Lubsan_data70
	.quad	32
	.quad	64
	.quad	.LC127
	.quad	.LC0
	.quad	0
	.quad	0
	.quad	0
	.quad	.Lubsan_data69
	.quad	16
	.quad	64
	.quad	.LC128
	.quad	.LC0
	.quad	0
	.quad	0
	.quad	0
	.quad	.Lubsan_data68
	.quad	16
	.quad	64
	.quad	.LC129
	.quad	.LC0
	.quad	0
	.quad	0
	.quad	0
	.quad	.Lubsan_data67
	.quad	32
	.quad	64
	.quad	.LC130
	.quad	.LC0
	.quad	0
	.quad	0
	.quad	0
	.quad	.Lubsan_data66
	.quad	16
	.quad	64
	.quad	.LC131
	.quad	.LC0
	.quad	0
	.quad	0
	.quad	0
	.quad	.Lubsan_data65
	.quad	32
	.quad	64
	.quad	.LC132
	.quad	.LC0
	.quad	0
	.quad	0
	.quad	0
	.quad	.Lubsan_data64
	.quad	16
	.quad	64
	.quad	.LC133
	.quad	.LC0
	.quad	0
	.quad	0
	.quad	0
	.quad	.Lubsan_data63
	.quad	32
	.quad	64
	.quad	.LC134
	.quad	.LC0
	.quad	0
	.quad	0
	.quad	0
	.quad	.Lubsan_data62
	.quad	16
	.quad	64
	.quad	.LC135
	.quad	.LC0
	.quad	0
	.quad	0
	.quad	0
	.quad	.Lubsan_data61
	.quad	32
	.quad	64
	.quad	.LC136
	.quad	.LC0
	.quad	0
	.quad	0
	.quad	0
	.quad	.Lubsan_data60
	.quad	16
	.quad	64
	.quad	.LC137
	.quad	.LC0
	.quad	0
	.quad	0
	.quad	0
	.quad	.Lubsan_data59
	.quad	16
	.quad	64
	.quad	.LC138
	.quad	.LC0
	.quad	0
	.quad	0
	.quad	0
	.quad	.Lubsan_data58
	.quad	32
	.quad	64
	.quad	.LC139
	.quad	.LC0
	.quad	0
	.quad	0
	.quad	0
	.quad	.Lubsan_data57
	.quad	16
	.quad	64
	.quad	.LC140
	.quad	.LC0
	.quad	0
	.quad	0
	.quad	0
	.quad	.Lubsan_data56
	.quad	32
	.quad	64
	.quad	.LC141
	.quad	.LC0
	.quad	0
	.quad	0
	.quad	0
	.quad	.Lubsan_data55
	.quad	16
	.quad	64
	.quad	.LC142
	.quad	.LC0
	.quad	0
	.quad	0
	.quad	0
	.quad	.Lubsan_data54
	.quad	32
	.quad	64
	.quad	.LC143
	.quad	.LC0
	.quad	0
	.quad	0
	.quad	0
	.quad	.Lubsan_data53
	.quad	16
	.quad	64
	.quad	.LC144
	.quad	.LC0
	.quad	0
	.quad	0
	.quad	0
	.quad	.Lubsan_data52
	.quad	32
	.quad	64
	.quad	.LC145
	.quad	.LC0
	.quad	0
	.quad	0
	.quad	0
	.quad	.Lubsan_data51
	.quad	16
	.quad	64
	.quad	.LC146
	.quad	.LC0
	.quad	0
	.quad	0
	.quad	0
	.quad	.Lubsan_data50
	.quad	32
	.quad	64
	.quad	.LC147
	.quad	.LC0
	.quad	0
	.quad	0
	.quad	0
	.quad	.Lubsan_data49
	.quad	16
	.quad	64
	.quad	.LC148
	.quad	.LC0
	.quad	0
	.quad	0
	.quad	0
	.quad	.Lubsan_data48
	.quad	32
	.quad	64
	.quad	.LC149
	.quad	.LC0
	.quad	0
	.quad	0
	.quad	0
	.quad	.Lubsan_data47
	.quad	16
	.quad	64
	.quad	.LC150
	.quad	.LC0
	.quad	0
	.quad	0
	.quad	0
	.quad	.Lubsan_data46
	.quad	32
	.quad	64
	.quad	.LC151
	.quad	.LC0
	.quad	0
	.quad	0
	.quad	0
	.quad	.Lubsan_data45
	.quad	16
	.quad	64
	.quad	.LC152
	.quad	.LC0
	.quad	0
	.quad	0
	.quad	0
	.quad	.Lubsan_data44
	.quad	32
	.quad	64
	.quad	.LC153
	.quad	.LC0
	.quad	0
	.quad	0
	.quad	0
	.quad	.Lubsan_data43
	.quad	16
	.quad	64
	.quad	.LC154
	.quad	.LC0
	.quad	0
	.quad	0
	.quad	0
	.quad	.Lubsan_data42
	.quad	32
	.quad	64
	.quad	.LC155
	.quad	.LC0
	.quad	0
	.quad	0
	.quad	0
	.quad	.Lubsan_data41
	.quad	16
	.quad	64
	.quad	.LC156
	.quad	.LC0
	.quad	0
	.quad	0
	.quad	0
	.quad	.Lubsan_data40
	.quad	32
	.quad	64
	.quad	.LC157
	.quad	.LC0
	.quad	0
	.quad	0
	.quad	0
	.quad	.Lubsan_data39
	.quad	16
	.quad	64
	.quad	.LC158
	.quad	.LC0
	.quad	0
	.quad	0
	.quad	0
	.quad	.Lubsan_data38
	.quad	16
	.quad	64
	.quad	.LC159
	.quad	.LC0
	.quad	0
	.quad	0
	.quad	0
	.quad	.Lubsan_data37
	.quad	32
	.quad	64
	.quad	.LC160
	.quad	.LC0
	.quad	0
	.quad	0
	.quad	0
	.quad	.Lubsan_data36
	.quad	16
	.quad	64
	.quad	.LC161
	.quad	.LC0
	.quad	0
	.quad	0
	.quad	0
	.quad	.Lubsan_data35
	.quad	32
	.quad	64
	.quad	.LC162
	.quad	.LC0
	.quad	0
	.quad	0
	.quad	0
	.quad	.Lubsan_data34
	.quad	16
	.quad	64
	.quad	.LC163
	.quad	.LC0
	.quad	0
	.quad	0
	.quad	0
	.quad	.Lubsan_data33
	.quad	32
	.quad	64
	.quad	.LC164
	.quad	.LC0
	.quad	0
	.quad	0
	.quad	0
	.quad	.Lubsan_data32
	.quad	16
	.quad	64
	.quad	.LC165
	.quad	.LC0
	.quad	0
	.quad	0
	.quad	0
	.quad	.Lubsan_data31
	.quad	32
	.quad	64
	.quad	.LC166
	.quad	.LC0
	.quad	0
	.quad	0
	.quad	0
	.quad	.Lubsan_data30
	.quad	16
	.quad	64
	.quad	.LC167
	.quad	.LC0
	.quad	0
	.quad	0
	.quad	0
	.quad	.Lubsan_data29
	.quad	32
	.quad	64
	.quad	.LC168
	.quad	.LC0
	.quad	0
	.quad	0
	.quad	0
	.quad	.Lubsan_data28
	.quad	16
	.quad	64
	.quad	.LC169
	.quad	.LC0
	.quad	0
	.quad	0
	.quad	0
	.quad	.Lubsan_data27
	.quad	32
	.quad	64
	.quad	.LC170
	.quad	.LC0
	.quad	0
	.quad	0
	.quad	0
	.quad	.Lubsan_data26
	.quad	16
	.quad	64
	.quad	.LC171
	.quad	.LC0
	.quad	0
	.quad	0
	.quad	0
	.quad	.Lubsan_data25
	.quad	32
	.quad	64
	.quad	.LC172
	.quad	.LC0
	.quad	0
	.quad	0
	.quad	0
	.quad	.Lubsan_data24
	.quad	16
	.quad	64
	.quad	.LC173
	.quad	.LC0
	.quad	0
	.quad	0
	.quad	0
	.quad	.Lubsan_data23
	.quad	16
	.quad	64
	.quad	.LC174
	.quad	.LC0
	.quad	0
	.quad	0
	.quad	0
	.quad	.Lubsan_data22
	.quad	32
	.quad	64
	.quad	.LC175
	.quad	.LC0
	.quad	0
	.quad	0
	.quad	0
	.quad	.Lubsan_data21
	.quad	16
	.quad	64
	.quad	.LC176
	.quad	.LC0
	.quad	0
	.quad	0
	.quad	0
	.quad	.Lubsan_data20
	.quad	32
	.quad	64
	.quad	.LC177
	.quad	.LC0
	.quad	0
	.quad	0
	.quad	0
	.quad	.Lubsan_data19
	.quad	16
	.quad	64
	.quad	.LC178
	.quad	.LC0
	.quad	0
	.quad	0
	.quad	0
	.quad	.Lubsan_data18
	.quad	32
	.quad	64
	.quad	.LC179
	.quad	.LC0
	.quad	0
	.quad	0
	.quad	0
	.quad	.Lubsan_data17
	.quad	16
	.quad	64
	.quad	.LC180
	.quad	.LC0
	.quad	0
	.quad	0
	.quad	0
	.quad	.Lubsan_data16
	.quad	32
	.quad	64
	.quad	.LC181
	.quad	.LC0
	.quad	0
	.quad	0
	.quad	0
	.quad	.Lubsan_data15
	.quad	16
	.quad	64
	.quad	.LC182
	.quad	.LC0
	.quad	0
	.quad	0
	.quad	0
	.quad	.Lubsan_data14
	.quad	32
	.quad	64
	.quad	.LC183
	.quad	.LC0
	.quad	0
	.quad	0
	.quad	0
	.quad	.Lubsan_data13
	.quad	16
	.quad	64
	.quad	.LC184
	.quad	.LC0
	.quad	0
	.quad	0
	.quad	0
	.quad	.Lubsan_data12
	.quad	32
	.quad	64
	.quad	.LC185
	.quad	.LC0
	.quad	0
	.quad	0
	.quad	0
	.quad	.Lubsan_data11
	.quad	16
	.quad	64
	.quad	.LC186
	.quad	.LC0
	.quad	0
	.quad	0
	.quad	0
	.quad	.Lubsan_data10
	.quad	32
	.quad	64
	.quad	.LC187
	.quad	.LC0
	.quad	0
	.quad	0
	.quad	0
	.quad	.Lubsan_data9
	.quad	16
	.quad	64
	.quad	.LC188
	.quad	.LC0
	.quad	0
	.quad	0
	.quad	0
	.quad	.Lubsan_data8
	.quad	32
	.quad	64
	.quad	.LC189
	.quad	.LC0
	.quad	0
	.quad	0
	.quad	0
	.quad	.Lubsan_data7
	.quad	16
	.quad	64
	.quad	.LC190
	.quad	.LC0
	.quad	0
	.quad	0
	.quad	0
	.quad	.Lubsan_data6
	.quad	32
	.quad	64
	.quad	.LC191
	.quad	.LC0
	.quad	0
	.quad	0
	.quad	0
	.quad	.Lubsan_data5
	.quad	16
	.quad	64
	.quad	.LC192
	.quad	.LC0
	.quad	0
	.quad	0
	.quad	0
	.quad	.Lubsan_data4
	.quad	32
	.quad	64
	.quad	.LC193
	.quad	.LC0
	.quad	0
	.quad	0
	.quad	0
	.quad	.Lubsan_data3
	.quad	16
	.quad	64
	.quad	.LC194
	.quad	.LC0
	.quad	0
	.quad	0
	.quad	0
	.quad	.Lubsan_data2
	.quad	32
	.quad	64
	.quad	.LC195
	.quad	.LC0
	.quad	0
	.quad	0
	.quad	0
	.quad	.Lubsan_type0
	.quad	19
	.quad	64
	.quad	.LC196
	.quad	.LC0
	.quad	0
	.quad	0
	.quad	0
	.quad	.Lubsan_data1
	.quad	40
	.quad	96
	.quad	.LC197
	.quad	.LC0
	.quad	0
	.quad	0
	.quad	0
	.quad	__PRETTY_FUNCTION__.0
	.quad	10
	.quad	64
	.quad	.LC198
	.quad	.LC0
	.quad	0
	.quad	.LASANLOC1
	.quad	0
	.quad	__PRETTY_FUNCTION__.1
	.quad	21
	.quad	64
	.quad	.LC198
	.quad	.LC0
	.quad	0
	.quad	.LASANLOC2
	.quad	0
	.quad	__PRETTY_FUNCTION__.2
	.quad	23
	.quad	64
	.quad	.LC198
	.quad	.LC0
	.quad	0
	.quad	.LASANLOC3
	.quad	0
	.quad	__PRETTY_FUNCTION__.3
	.quad	15
	.quad	64
	.quad	.LC198
	.quad	.LC0
	.quad	0
	.quad	.LASANLOC4
	.quad	0
	.quad	__PRETTY_FUNCTION__.4
	.quad	24
	.quad	64
	.quad	.LC198
	.quad	.LC0
	.quad	0
	.quad	.LASANLOC5
	.quad	0
	.quad	__PRETTY_FUNCTION__.5
	.quad	26
	.quad	64
	.quad	.LC198
	.quad	.LC0
	.quad	0
	.quad	.LASANLOC6
	.quad	0
	.quad	__PRETTY_FUNCTION__.6
	.quad	22
	.quad	64
	.quad	.LC198
	.quad	.LC0
	.quad	0
	.quad	.LASANLOC7
	.quad	0
	.quad	__PRETTY_FUNCTION__.7
	.quad	24
	.quad	64
	.quad	.LC198
	.quad	.LC0
	.quad	0
	.quad	.LASANLOC8
	.quad	0
	.quad	__PRETTY_FUNCTION__.8
	.quad	12
	.quad	64
	.quad	.LC198
	.quad	.LC0
	.quad	0
	.quad	.LASANLOC9
	.quad	0
	.quad	__PRETTY_FUNCTION__.9
	.quad	11
	.quad	64
	.quad	.LC198
	.quad	.LC0
	.quad	0
	.quad	.LASANLOC10
	.quad	0
	.quad	__PRETTY_FUNCTION__.10
	.quad	16
	.quad	64
	.quad	.LC198
	.quad	.LC0
	.quad	0
	.quad	.LASANLOC11
	.quad	0
	.quad	__PRETTY_FUNCTION__.11
	.quad	13
	.quad	64
	.quad	.LC198
	.quad	.LC0
	.quad	0
	.quad	.LASANLOC12
	.quad	0
	.quad	__PRETTY_FUNCTION__.12
	.quad	10
	.quad	64
	.quad	.LC198
	.quad	.LC0
	.quad	0
	.quad	.LASANLOC13
	.quad	0
	.quad	__PRETTY_FUNCTION__.13
	.quad	11
	.quad	64
	.quad	.LC198
	.quad	.LC0
	.quad	0
	.quad	.LASANLOC14
	.quad	0
	.quad	__PRETTY_FUNCTION__.14
	.quad	11
	.quad	64
	.quad	.LC198
	.quad	.LC0
	.quad	0
	.quad	.LASANLOC15
	.quad	0
	.quad	.LC7
	.quad	9
	.quad	64
	.quad	.LC199
	.quad	.LC0
	.quad	0
	.quad	0
	.quad	0
	.quad	.LC8
	.quad	20
	.quad	64
	.quad	.LC200
	.quad	.LC0
	.quad	0
	.quad	0
	.quad	0
	.quad	.LC5
	.quad	3
	.quad	64
	.quad	.LC201
	.quad	.LC0
	.quad	0
	.quad	0
	.quad	0
	.quad	.LC2
	.quad	18
	.quad	64
	.quad	.LC202
	.quad	.LC0
	.quad	0
	.quad	0
	.quad	0
	.quad	.LC9
	.quad	20
	.quad	64
	.quad	.LC203
	.quad	.LC0
	.quad	0
	.quad	0
	.quad	0
	.quad	.LC4
	.quad	18
	.quad	64
	.quad	.LC204
	.quad	.LC0
	.quad	0
	.quad	0
	.quad	0
	.quad	.LC0
	.quad	8
	.quad	64
	.quad	.LC205
	.quad	.LC0
	.quad	0
	.quad	0
	.quad	0
	.quad	.LC1
	.quad	14
	.quad	64
	.quad	.LC206
	.quad	.LC0
	.quad	0
	.quad	0
	.quad	0
	.quad	.LC3
	.quad	16
	.quad	64
	.quad	.LC207
	.quad	.LC0
	.quad	0
	.quad	0
	.quad	0
	.quad	.LC6
	.quad	8
	.quad	64
	.quad	.LC208
	.quad	.LC0
	.quad	0
	.quad	0
	.quad	0
	.text
	.type	_sub_D_00099_0, @function
_sub_D_00099_0:
.LFB15:
	.cfi_startproc
	pushq	%rbp
	.cfi_def_cfa_offset 16
	.cfi_offset 6, -16
	movq	%rsp, %rbp
	.cfi_def_cfa_register 6
	movl	$213, %esi
	movl	$.LASAN0, %edi
	call	__asan_unregister_globals
	popq	%rbp
	.cfi_def_cfa 7, 8
	ret
	.cfi_endproc
.LFE15:
	.size	_sub_D_00099_0, .-_sub_D_00099_0
	.section	.fini_array.00099,"aw"
	.align 8
	.quad	_sub_D_00099_0
	.text
	.type	_sub_I_00099_1, @function
_sub_I_00099_1:
.LFB16:
	.cfi_startproc
	pushq	%rbp
	.cfi_def_cfa_offset 16
	.cfi_offset 6, -16
	movq	%rsp, %rbp
	.cfi_def_cfa_register 6
	call	__asan_init
	call	__asan_version_mismatch_check_v8
	movl	$213, %esi
	movl	$.LASAN0, %edi
	call	__asan_register_globals
	popq	%rbp
	.cfi_def_cfa 7, 8
	ret
	.cfi_endproc
.LFE16:
	.size	_sub_I_00099_1, .-_sub_I_00099_1
	.section	.init_array.00099,"aw"
	.align 8
	.quad	_sub_I_00099_1
	.ident	"GCC: (GNU) 11.2.1 20211203 (Red Hat 11.2.1-7)"
	.section	.note.GNU-stack,"",@progbits
